
obj/kern/kernel:     file format elf64-x86-64


Disassembly of section .bootstrap:

0000000000100000 <_head64>:
.text
.globl _head64
_head64:

# Save multiboot_info addr passed by bootloader
    movl $multiboot_info, %eax
  100000:	b8 00 70 10 00       	mov    $0x107000,%eax
    movl %ebx, (%eax)
  100005:	89 18                	mov    %ebx,(%rax)

	movw $0x1234,0x472			# warm boot
  100007:	66 c7 05 72 04 00 00 	movw   $0x1234,0x472(%rip)        # 100482 <verify_cpu_no_longmode+0x36f>
  10000e:	34 12 
# Reset the stack pointer in case we didn't come from the loader
    movl $0x7c00,%esp
  100010:	bc 00 7c 00 00       	mov    $0x7c00,%esp

    call verify_cpu   #check if CPU supports long mode
  100015:	e8 cc 00 00 00       	callq  1000e6 <verify_cpu>
    movl $CR4_PAE,%eax
  10001a:	b8 20 00 00 00       	mov    $0x20,%eax
    movl %eax,%cr4
  10001f:	0f 22 e0             	mov    %rax,%cr4

# build an early boot pml4 at 0x8000

    #initializing the page tables
    movl $pml4,%edi
  100022:	bf 00 20 10 00       	mov    $0x102000,%edi
    xorl %eax,%eax
  100027:	31 c0                	xor    %eax,%eax
    movl $((4096/4)*5),%ecx  # moving these many words to the 6 pages with 4 second level pages + 1 3rd level + 1 4th level pages 
  100029:	b9 00 14 00 00       	mov    $0x1400,%ecx
    rep stosl
  10002e:	f3 ab                	rep stos %eax,%es:(%rdi)
    # creating a 4G boot page table
    # setting the 4th level page table only the second entry needed (PML4)
    movl $pml4,%eax
  100030:	b8 00 20 10 00       	mov    $0x102000,%eax
    movl $pdpt1, %ebx
  100035:	bb 00 30 10 00       	mov    $0x103000,%ebx
    orl $PTE_P,%ebx
  10003a:	83 cb 01             	or     $0x1,%ebx
    orl $PTE_W,%ebx
  10003d:	83 cb 02             	or     $0x2,%ebx
    movl %ebx,(%eax)
  100040:	89 18                	mov    %ebx,(%rax)

    movl $pdpt2, %ebx
  100042:	bb 00 40 10 00       	mov    $0x104000,%ebx
    orl $PTE_P,%ebx
  100047:	83 cb 01             	or     $0x1,%ebx
    orl $PTE_W,%ebx
  10004a:	83 cb 02             	or     $0x2,%ebx
    movl %ebx,0x8(%eax)
  10004d:	89 58 08             	mov    %ebx,0x8(%rax)

    # setting the 3rd level page table (PDPE)
    # 4 entries (counter in ecx), point to the next four physical pages (pgdirs)
    # pgdirs in 0xa0000--0xd000
    movl $pdpt1,%edi
  100050:	bf 00 30 10 00       	mov    $0x103000,%edi
    movl $pde1,%ebx
  100055:	bb 00 50 10 00       	mov    $0x105000,%ebx
    orl $PTE_P,%ebx
  10005a:	83 cb 01             	or     $0x1,%ebx
    orl $PTE_W,%ebx
  10005d:	83 cb 02             	or     $0x2,%ebx
    movl %ebx,(%edi)
  100060:	89 1f                	mov    %ebx,(%rdi)

    movl $pdpt2,%edi
  100062:	bf 00 40 10 00       	mov    $0x104000,%edi
    movl $pde2,%ebx
  100067:	bb 00 60 10 00       	mov    $0x106000,%ebx
    orl $PTE_P,%ebx
  10006c:	83 cb 01             	or     $0x1,%ebx
    orl $PTE_W,%ebx
  10006f:	83 cb 02             	or     $0x2,%ebx
    movl %ebx,(%edi)
  100072:	89 1f                	mov    %ebx,(%rdi)
    
    # setting the pgdir so that the LA=PA
    # mapping first 1G of mem at KERNBASE
    movl $128,%ecx
  100074:	b9 80 00 00 00       	mov    $0x80,%ecx
    # Start at the end and work backwards
    #leal (pml4 + 5*0x1000 - 0x8),%edi
    movl $pde1,%edi
  100079:	bf 00 50 10 00       	mov    $0x105000,%edi
    movl $pde2,%ebx
  10007e:	bb 00 60 10 00       	mov    $0x106000,%ebx
    #64th entry - 0x8004000000
    addl $256,%ebx 
  100083:	81 c3 00 01 00 00    	add    $0x100,%ebx
    # PTE_P|PTE_W|PTE_MBZ
    movl $0x00000183,%eax
  100089:	b8 83 01 00 00       	mov    $0x183,%eax
  1:
     movl %eax,(%edi)
  10008e:	89 07                	mov    %eax,(%rdi)
     movl %eax,(%ebx)
  100090:	89 03                	mov    %eax,(%rbx)
     addl $0x8,%edi
  100092:	83 c7 08             	add    $0x8,%edi
     addl $0x8,%ebx
  100095:	83 c3 08             	add    $0x8,%ebx
     addl $0x00200000,%eax
  100098:	05 00 00 20 00       	add    $0x200000,%eax
     subl $1,%ecx
  10009d:	83 e9 01             	sub    $0x1,%ecx
     cmp $0x0,%ecx
  1000a0:	83 f9 00             	cmp    $0x0,%ecx
     jne 1b
  1000a3:	75 e9                	jne    10008e <_head64+0x8e>
 /*    subl $1,%ecx */
 /*    cmp $0x0,%ecx */
 /*    jne 1b */

    # set the cr3 register
    movl $pml4,%eax
  1000a5:	b8 00 20 10 00       	mov    $0x102000,%eax
    movl %eax, %cr3
  1000aa:	0f 22 d8             	mov    %rax,%cr3

	
    # enable the long mode in MSR
    movl $EFER_MSR,%ecx
  1000ad:	b9 80 00 00 c0       	mov    $0xc0000080,%ecx
    rdmsr
  1000b2:	0f 32                	rdmsr  
    btsl $EFER_LME,%eax
  1000b4:	0f ba e8 08          	bts    $0x8,%eax
    wrmsr
  1000b8:	0f 30                	wrmsr  
    
    # enable paging 
    movl %cr0,%eax
  1000ba:	0f 20 c0             	mov    %cr0,%rax
    orl $CR0_PE,%eax
  1000bd:	83 c8 01             	or     $0x1,%eax
    orl $CR0_PG,%eax
  1000c0:	0d 00 00 00 80       	or     $0x80000000,%eax
    orl $CR0_AM,%eax
  1000c5:	0d 00 00 04 00       	or     $0x40000,%eax
    orl $CR0_WP,%eax
  1000ca:	0d 00 00 01 00       	or     $0x10000,%eax
    orl $CR0_MP,%eax
  1000cf:	83 c8 02             	or     $0x2,%eax
    movl %eax,%cr0
  1000d2:	0f 22 c0             	mov    %rax,%cr0
    #jump to long mode with CS=0 and

    movl $gdtdesc_64,%eax
  1000d5:	b8 18 10 10 00       	mov    $0x101018,%eax
    lgdt (%eax)
  1000da:	0f 01 10             	lgdt   (%rax)
    pushl $0x8
  1000dd:	6a 08                	pushq  $0x8
    movl $_start,%eax
  1000df:	b8 0c 00 20 00       	mov    $0x20000c,%eax
    pushl %eax
  1000e4:	50                   	push   %rax

00000000001000e5 <jumpto_longmode>:
    
    .globl jumpto_longmode
    .type jumpto_longmode,@function
jumpto_longmode:
    lret
  1000e5:	cb                   	lret   

00000000001000e6 <verify_cpu>:
/*     movabs $_back_from_head64, %rax */
/*     pushq %rax */
/*     lretq */

verify_cpu:
    pushfl                   # get eflags in eax -- standardard way to check for cpuid
  1000e6:	9c                   	pushfq 
    popl %eax
  1000e7:	58                   	pop    %rax
    movl %eax,%ecx
  1000e8:	89 c1                	mov    %eax,%ecx
    xorl $0x200000, %eax
  1000ea:	35 00 00 20 00       	xor    $0x200000,%eax
    pushl %eax
  1000ef:	50                   	push   %rax
    popfl
  1000f0:	9d                   	popfq  
    pushfl
  1000f1:	9c                   	pushfq 
    popl %eax
  1000f2:	58                   	pop    %rax
    cmpl %eax,%ebx
  1000f3:	39 c3                	cmp    %eax,%ebx
    jz verify_cpu_no_longmode   # no cpuid -- no long mode
  1000f5:	74 1c                	je     100113 <verify_cpu_no_longmode>

    movl $0x0,%eax              # see if cpuid 1 is implemented
  1000f7:	b8 00 00 00 00       	mov    $0x0,%eax
    cpuid
  1000fc:	0f a2                	cpuid  
    cmpl $0x1,%eax
  1000fe:	83 f8 01             	cmp    $0x1,%eax
    jb verify_cpu_no_longmode    # cpuid 1 is not implemented
  100101:	72 10                	jb     100113 <verify_cpu_no_longmode>


    mov $0x80000001, %eax
  100103:	b8 01 00 00 80       	mov    $0x80000001,%eax
    cpuid                 
  100108:	0f a2                	cpuid  
    test $(1 << 29),%edx                 #Test if the LM-bit, is set or not.
  10010a:	f7 c2 00 00 00 20    	test   $0x20000000,%edx
    jz verify_cpu_no_longmode
  100110:	74 01                	je     100113 <verify_cpu_no_longmode>

    ret
  100112:	c3                   	retq   

0000000000100113 <verify_cpu_no_longmode>:

verify_cpu_no_longmode:
    jmp verify_cpu_no_longmode
  100113:	eb fe                	jmp    100113 <verify_cpu_no_longmode>
	...

0000000000101000 <gdt_64>:
	...
  101008:	ff                   	(bad)  
  101009:	ff 00                	incl   (%rax)
  10100b:	00 00                	add    %al,(%rax)
  10100d:	9a                   	(bad)  
  10100e:	af                   	scas   %es:(%rdi),%eax
  10100f:	00 ff                	add    %bh,%bh
  101011:	ff 00                	incl   (%rax)
  101013:	00 00                	add    %al,(%rax)
  101015:	92                   	xchg   %eax,%edx
  101016:	cf                   	iret   
	...

0000000000101018 <gdtdesc_64>:
  101018:	17                   	(bad)  
  101019:	00 00                	add    %al,(%rax)
  10101b:	10 10                	adc    %dl,(%rax)
	...

0000000000102000 <pml4virt>:
	...

0000000000103000 <pdpt1>:
	...

0000000000104000 <pdpt2>:
	...

0000000000105000 <pde1>:
	...

0000000000106000 <pde2>:
	...

0000000000107000 <multiboot_info>:
  107000:	00 00                	add    %al,(%rax)
	...

Disassembly of section .text:

0000008004200000 <_start+0x8003fffff4>:
  8004200000:	02 b0 ad 1b 00 00    	add    0x1bad(%rax),%dh
  8004200006:	00 00                	add    %al,(%rax)
  8004200008:	fe 4f 52             	decb   0x52(%rdi)
  800420000b:	e4 48                	in     $0x48,%al

000000800420000c <entry>:
entry:

/* .globl _back_from_head64 */
/* _back_from_head64: */

    movabs   $gdtdesc_64,%rax
  800420000c:	48 b8 38 b0 21 04 80 	movabs $0x800421b038,%rax
  8004200013:	00 00 00 
    lgdt     (%rax)
  8004200016:	0f 01 10             	lgdt   (%rax)
    movw    $DATA_SEL,%ax
  8004200019:	66 b8 10 00          	mov    $0x10,%ax
    movw    %ax,%ds
  800420001d:	8e d8                	mov    %eax,%ds
    movw    %ax,%ss
  800420001f:	8e d0                	mov    %eax,%ss
    movw    %ax,%fs
  8004200021:	8e e0                	mov    %eax,%fs
    movw    %ax,%gs
  8004200023:	8e e8                	mov    %eax,%gs
    movw    %ax,%es
  8004200025:	8e c0                	mov    %eax,%es
    pushq   $CODE_SEL
  8004200027:	6a 08                	pushq  $0x8
    movabs  $relocated,%rax
  8004200029:	48 b8 36 00 20 04 80 	movabs $0x8004200036,%rax
  8004200030:	00 00 00 
    pushq   %rax
  8004200033:	50                   	push   %rax
    lretq
  8004200034:	48 cb                	lretq  

0000008004200036 <relocated>:
relocated:

	# Clear the frame pointer register (RBP)
	# so that once we get into debugging C code,
	# stack backtraces will be terminated properly.
	movq	$0x0,%rbp			# nuke frame pointer
  8004200036:	48 c7 c5 00 00 00 00 	mov    $0x0,%rbp

	# Set the stack pointer
	movabs	$(bootstacktop),%rax
  800420003d:	48 b8 00 b0 21 04 80 	movabs $0x800421b000,%rax
  8004200044:	00 00 00 
	movq  %rax,%rsp
  8004200047:	48 89 c4             	mov    %rax,%rsp

	# now to C code
    movabs $i386_init, %rax
  800420004a:	48 b8 dc 00 20 04 80 	movabs $0x80042000dc,%rax
  8004200051:	00 00 00 
	call *%rax
  8004200054:	ff d0                	callq  *%rax

0000008004200056 <spin>:

	# Should never get here, but in case we do, just spin.
spin:	jmp	spin
  8004200056:	eb fe                	jmp    8004200056 <spin>

0000008004200058 <test_backtrace>:


// Test the stack backtrace function (lab 1 only)
void
test_backtrace(int x)
{
  8004200058:	55                   	push   %rbp
  8004200059:	48 89 e5             	mov    %rsp,%rbp
  800420005c:	48 83 ec 10          	sub    $0x10,%rsp
  8004200060:	89 7d fc             	mov    %edi,-0x4(%rbp)
	cprintf("entering test_backtrace %d\n", x);
  8004200063:	8b 45 fc             	mov    -0x4(%rbp),%eax
  8004200066:	89 c6                	mov    %eax,%esi
  8004200068:	48 bf 00 93 20 04 80 	movabs $0x8004209300,%rdi
  800420006f:	00 00 00 
  8004200072:	b8 00 00 00 00       	mov    $0x0,%eax
  8004200077:	48 ba 22 16 20 04 80 	movabs $0x8004201622,%rdx
  800420007e:	00 00 00 
  8004200081:	ff d2                	callq  *%rdx
	if (x > 0)
  8004200083:	83 7d fc 00          	cmpl   $0x0,-0x4(%rbp)
  8004200087:	7e 16                	jle    800420009f <test_backtrace+0x47>
		test_backtrace(x-1);
  8004200089:	8b 45 fc             	mov    -0x4(%rbp),%eax
  800420008c:	83 e8 01             	sub    $0x1,%eax
  800420008f:	89 c7                	mov    %eax,%edi
  8004200091:	48 b8 58 00 20 04 80 	movabs $0x8004200058,%rax
  8004200098:	00 00 00 
  800420009b:	ff d0                	callq  *%rax
  800420009d:	eb 1b                	jmp    80042000ba <test_backtrace+0x62>
	else
		mon_backtrace(0, 0, 0);
  800420009f:	ba 00 00 00 00       	mov    $0x0,%edx
  80042000a4:	be 00 00 00 00       	mov    $0x0,%esi
  80042000a9:	bf 00 00 00 00       	mov    $0x0,%edi
  80042000ae:	48 b8 64 11 20 04 80 	movabs $0x8004201164,%rax
  80042000b5:	00 00 00 
  80042000b8:	ff d0                	callq  *%rax
	cprintf("leaving test_backtrace %d\n", x);
  80042000ba:	8b 45 fc             	mov    -0x4(%rbp),%eax
  80042000bd:	89 c6                	mov    %eax,%esi
  80042000bf:	48 bf 1c 93 20 04 80 	movabs $0x800420931c,%rdi
  80042000c6:	00 00 00 
  80042000c9:	b8 00 00 00 00       	mov    $0x0,%eax
  80042000ce:	48 ba 22 16 20 04 80 	movabs $0x8004201622,%rdx
  80042000d5:	00 00 00 
  80042000d8:	ff d2                	callq  *%rdx
}
  80042000da:	c9                   	leaveq 
  80042000db:	c3                   	retq   

00000080042000dc <i386_init>:

void
i386_init(void)
{
  80042000dc:	55                   	push   %rbp
  80042000dd:	48 89 e5             	mov    %rsp,%rbp
	extern char edata[], end[];

	// Before doing anything else, complete the ELF loading process.
	// Clear the uninitialized global data (BSS) section of our program.
	// This ensures that all static/global variables start out zero.
	memset(edata, 0, end - edata);
  80042000e0:	48 ba 60 cc 21 04 80 	movabs $0x800421cc60,%rdx
  80042000e7:	00 00 00 
  80042000ea:	48 b8 c0 b6 21 04 80 	movabs $0x800421b6c0,%rax
  80042000f1:	00 00 00 
  80042000f4:	48 89 d1             	mov    %rdx,%rcx
  80042000f7:	48 29 c1             	sub    %rax,%rcx
  80042000fa:	48 89 c8             	mov    %rcx,%rax
  80042000fd:	48 89 c2             	mov    %rax,%rdx
  8004200100:	be 00 00 00 00       	mov    $0x0,%esi
  8004200105:	48 bf c0 b6 21 04 80 	movabs $0x800421b6c0,%rdi
  800420010c:	00 00 00 
  800420010f:	48 b8 5b 2e 20 04 80 	movabs $0x8004202e5b,%rax
  8004200116:	00 00 00 
  8004200119:	ff d0                	callq  *%rax

	// Initialize the console.
	// Can't call cprintf until after we do this!
	cons_init();
  800420011b:	48 b8 8e 0e 20 04 80 	movabs $0x8004200e8e,%rax
  8004200122:	00 00 00 
  8004200125:	ff d0                	callq  *%rax

	cprintf("6828 decimal is %o octal!\n", 6828);
  8004200127:	be ac 1a 00 00       	mov    $0x1aac,%esi
  800420012c:	48 bf 37 93 20 04 80 	movabs $0x8004209337,%rdi
  8004200133:	00 00 00 
  8004200136:	b8 00 00 00 00       	mov    $0x0,%eax
  800420013b:	48 ba 22 16 20 04 80 	movabs $0x8004201622,%rdx
  8004200142:	00 00 00 
  8004200145:	ff d2                	callq  *%rdx

    extern char end[];
    end_debug = read_section_headers((0x10000+KERNBASE), (uintptr_t)end); 
  8004200147:	48 b8 60 cc 21 04 80 	movabs $0x800421cc60,%rax
  800420014e:	00 00 00 
  8004200151:	48 89 c6             	mov    %rax,%rsi
  8004200154:	48 bf 00 00 01 04 80 	movabs $0x8004010000,%rdi
  800420015b:	00 00 00 
  800420015e:	48 b8 1f 89 20 04 80 	movabs $0x800420891f,%rax
  8004200165:	00 00 00 
  8004200168:	ff d0                	callq  *%rax
  800420016a:	48 ba 68 bd 21 04 80 	movabs $0x800421bd68,%rdx
  8004200171:	00 00 00 
  8004200174:	48 89 02             	mov    %rax,(%rdx)


	// Test the stack backtrace function (lab 1 only)
	test_backtrace(5);
  8004200177:	bf 05 00 00 00       	mov    $0x5,%edi
  800420017c:	48 b8 58 00 20 04 80 	movabs $0x8004200058,%rax
  8004200183:	00 00 00 
  8004200186:	ff d0                	callq  *%rax

	// Drop into the kernel monitor.
	while (1)
		monitor(NULL);
  8004200188:	bf 00 00 00 00       	mov    $0x0,%edi
  800420018d:	48 b8 14 15 20 04 80 	movabs $0x8004201514,%rax
  8004200194:	00 00 00 
  8004200197:	ff d0                	callq  *%rax
  8004200199:	eb ed                	jmp    8004200188 <i386_init+0xac>

000000800420019b <_panic>:
 * Panic is called on unresolvable fatal errors.
 * It prints "panic: mesg", and then enters the kernel monitor.
 */
void
_panic(const char *file, int line, const char *fmt,...)
{
  800420019b:	55                   	push   %rbp
  800420019c:	48 89 e5             	mov    %rsp,%rbp
  800420019f:	48 81 ec f0 00 00 00 	sub    $0xf0,%rsp
  80042001a6:	48 89 bd 28 ff ff ff 	mov    %rdi,-0xd8(%rbp)
  80042001ad:	89 b5 24 ff ff ff    	mov    %esi,-0xdc(%rbp)
  80042001b3:	48 89 8d 68 ff ff ff 	mov    %rcx,-0x98(%rbp)
  80042001ba:	4c 89 85 70 ff ff ff 	mov    %r8,-0x90(%rbp)
  80042001c1:	4c 89 8d 78 ff ff ff 	mov    %r9,-0x88(%rbp)
  80042001c8:	84 c0                	test   %al,%al
  80042001ca:	74 20                	je     80042001ec <_panic+0x51>
  80042001cc:	0f 29 45 80          	movaps %xmm0,-0x80(%rbp)
  80042001d0:	0f 29 4d 90          	movaps %xmm1,-0x70(%rbp)
  80042001d4:	0f 29 55 a0          	movaps %xmm2,-0x60(%rbp)
  80042001d8:	0f 29 5d b0          	movaps %xmm3,-0x50(%rbp)
  80042001dc:	0f 29 65 c0          	movaps %xmm4,-0x40(%rbp)
  80042001e0:	0f 29 6d d0          	movaps %xmm5,-0x30(%rbp)
  80042001e4:	0f 29 75 e0          	movaps %xmm6,-0x20(%rbp)
  80042001e8:	0f 29 7d f0          	movaps %xmm7,-0x10(%rbp)
  80042001ec:	48 89 95 18 ff ff ff 	mov    %rdx,-0xe8(%rbp)
	va_list ap;

	if (panicstr)
  80042001f3:	48 b8 70 bd 21 04 80 	movabs $0x800421bd70,%rax
  80042001fa:	00 00 00 
  80042001fd:	48 8b 00             	mov    (%rax),%rax
  8004200200:	48 85 c0             	test   %rax,%rax
  8004200203:	0f 85 ab 00 00 00    	jne    80042002b4 <_panic+0x119>
		goto dead;
	panicstr = fmt;
  8004200209:	48 b8 70 bd 21 04 80 	movabs $0x800421bd70,%rax
  8004200210:	00 00 00 
  8004200213:	48 8b 95 18 ff ff ff 	mov    -0xe8(%rbp),%rdx
  800420021a:	48 89 10             	mov    %rdx,(%rax)

	// Be extra sure that the machine is in as reasonable state
	__asm __volatile("cli; cld");
  800420021d:	fa                   	cli    
  800420021e:	fc                   	cld    

	va_start(ap, fmt);
  800420021f:	c7 85 38 ff ff ff 18 	movl   $0x18,-0xc8(%rbp)
  8004200226:	00 00 00 
  8004200229:	c7 85 3c ff ff ff 30 	movl   $0x30,-0xc4(%rbp)
  8004200230:	00 00 00 
  8004200233:	48 8d 45 10          	lea    0x10(%rbp),%rax
  8004200237:	48 89 85 40 ff ff ff 	mov    %rax,-0xc0(%rbp)
  800420023e:	48 8d 85 50 ff ff ff 	lea    -0xb0(%rbp),%rax
  8004200245:	48 89 85 48 ff ff ff 	mov    %rax,-0xb8(%rbp)
	cprintf("kernel panic at %s:%d: ", file, line);
  800420024c:	8b 95 24 ff ff ff    	mov    -0xdc(%rbp),%edx
  8004200252:	48 8b 85 28 ff ff ff 	mov    -0xd8(%rbp),%rax
  8004200259:	48 89 c6             	mov    %rax,%rsi
  800420025c:	48 bf 52 93 20 04 80 	movabs $0x8004209352,%rdi
  8004200263:	00 00 00 
  8004200266:	b8 00 00 00 00       	mov    $0x0,%eax
  800420026b:	48 b9 22 16 20 04 80 	movabs $0x8004201622,%rcx
  8004200272:	00 00 00 
  8004200275:	ff d1                	callq  *%rcx
	vcprintf(fmt, ap);
  8004200277:	48 8d 95 38 ff ff ff 	lea    -0xc8(%rbp),%rdx
  800420027e:	48 8b 85 18 ff ff ff 	mov    -0xe8(%rbp),%rax
  8004200285:	48 89 d6             	mov    %rdx,%rsi
  8004200288:	48 89 c7             	mov    %rax,%rdi
  800420028b:	48 b8 c3 15 20 04 80 	movabs $0x80042015c3,%rax
  8004200292:	00 00 00 
  8004200295:	ff d0                	callq  *%rax
	cprintf("\n");
  8004200297:	48 bf 6a 93 20 04 80 	movabs $0x800420936a,%rdi
  800420029e:	00 00 00 
  80042002a1:	b8 00 00 00 00       	mov    $0x0,%eax
  80042002a6:	48 ba 22 16 20 04 80 	movabs $0x8004201622,%rdx
  80042002ad:	00 00 00 
  80042002b0:	ff d2                	callq  *%rdx
  80042002b2:	eb 01                	jmp    80042002b5 <_panic+0x11a>
_panic(const char *file, int line, const char *fmt,...)
{
	va_list ap;

	if (panicstr)
		goto dead;
  80042002b4:	90                   	nop
	va_end(ap);

dead:
	/* break into the kernel monitor */
	while (1)
		monitor(NULL);
  80042002b5:	bf 00 00 00 00       	mov    $0x0,%edi
  80042002ba:	48 b8 14 15 20 04 80 	movabs $0x8004201514,%rax
  80042002c1:	00 00 00 
  80042002c4:	ff d0                	callq  *%rax
  80042002c6:	eb ed                	jmp    80042002b5 <_panic+0x11a>

00000080042002c8 <_warn>:
}

/* like panic, but don't */
void
_warn(const char *file, int line, const char *fmt,...)
{
  80042002c8:	55                   	push   %rbp
  80042002c9:	48 89 e5             	mov    %rsp,%rbp
  80042002cc:	48 81 ec f0 00 00 00 	sub    $0xf0,%rsp
  80042002d3:	48 89 bd 28 ff ff ff 	mov    %rdi,-0xd8(%rbp)
  80042002da:	89 b5 24 ff ff ff    	mov    %esi,-0xdc(%rbp)
  80042002e0:	48 89 8d 68 ff ff ff 	mov    %rcx,-0x98(%rbp)
  80042002e7:	4c 89 85 70 ff ff ff 	mov    %r8,-0x90(%rbp)
  80042002ee:	4c 89 8d 78 ff ff ff 	mov    %r9,-0x88(%rbp)
  80042002f5:	84 c0                	test   %al,%al
  80042002f7:	74 20                	je     8004200319 <_warn+0x51>
  80042002f9:	0f 29 45 80          	movaps %xmm0,-0x80(%rbp)
  80042002fd:	0f 29 4d 90          	movaps %xmm1,-0x70(%rbp)
  8004200301:	0f 29 55 a0          	movaps %xmm2,-0x60(%rbp)
  8004200305:	0f 29 5d b0          	movaps %xmm3,-0x50(%rbp)
  8004200309:	0f 29 65 c0          	movaps %xmm4,-0x40(%rbp)
  800420030d:	0f 29 6d d0          	movaps %xmm5,-0x30(%rbp)
  8004200311:	0f 29 75 e0          	movaps %xmm6,-0x20(%rbp)
  8004200315:	0f 29 7d f0          	movaps %xmm7,-0x10(%rbp)
  8004200319:	48 89 95 18 ff ff ff 	mov    %rdx,-0xe8(%rbp)
	va_list ap;

	va_start(ap, fmt);
  8004200320:	c7 85 38 ff ff ff 18 	movl   $0x18,-0xc8(%rbp)
  8004200327:	00 00 00 
  800420032a:	c7 85 3c ff ff ff 30 	movl   $0x30,-0xc4(%rbp)
  8004200331:	00 00 00 
  8004200334:	48 8d 45 10          	lea    0x10(%rbp),%rax
  8004200338:	48 89 85 40 ff ff ff 	mov    %rax,-0xc0(%rbp)
  800420033f:	48 8d 85 50 ff ff ff 	lea    -0xb0(%rbp),%rax
  8004200346:	48 89 85 48 ff ff ff 	mov    %rax,-0xb8(%rbp)
	cprintf("kernel warning at %s:%d: ", file, line);
  800420034d:	8b 95 24 ff ff ff    	mov    -0xdc(%rbp),%edx
  8004200353:	48 8b 85 28 ff ff ff 	mov    -0xd8(%rbp),%rax
  800420035a:	48 89 c6             	mov    %rax,%rsi
  800420035d:	48 bf 6c 93 20 04 80 	movabs $0x800420936c,%rdi
  8004200364:	00 00 00 
  8004200367:	b8 00 00 00 00       	mov    $0x0,%eax
  800420036c:	48 b9 22 16 20 04 80 	movabs $0x8004201622,%rcx
  8004200373:	00 00 00 
  8004200376:	ff d1                	callq  *%rcx
	vcprintf(fmt, ap);
  8004200378:	48 8d 95 38 ff ff ff 	lea    -0xc8(%rbp),%rdx
  800420037f:	48 8b 85 18 ff ff ff 	mov    -0xe8(%rbp),%rax
  8004200386:	48 89 d6             	mov    %rdx,%rsi
  8004200389:	48 89 c7             	mov    %rax,%rdi
  800420038c:	48 b8 c3 15 20 04 80 	movabs $0x80042015c3,%rax
  8004200393:	00 00 00 
  8004200396:	ff d0                	callq  *%rax
	cprintf("\n");
  8004200398:	48 bf 6a 93 20 04 80 	movabs $0x800420936a,%rdi
  800420039f:	00 00 00 
  80042003a2:	b8 00 00 00 00       	mov    $0x0,%eax
  80042003a7:	48 ba 22 16 20 04 80 	movabs $0x8004201622,%rdx
  80042003ae:	00 00 00 
  80042003b1:	ff d2                	callq  *%rdx
	va_end(ap);
}
  80042003b3:	c9                   	leaveq 
  80042003b4:	c3                   	retq   
  80042003b5:	00 00                	add    %al,(%rax)
	...

00000080042003b8 <delay>:
static void cons_putc(int c);

// Stupid I/O delay routine necessitated by historical PC design flaws
static void
delay(void)
{
  80042003b8:	55                   	push   %rbp
  80042003b9:	48 89 e5             	mov    %rsp,%rbp
  80042003bc:	53                   	push   %rbx
  80042003bd:	48 83 ec 28          	sub    $0x28,%rsp
  80042003c1:	c7 45 f4 84 00 00 00 	movl   $0x84,-0xc(%rbp)

static __inline uint8_t
inb(int port)
{
	uint8_t data;
	__asm __volatile("inb %w1,%0" : "=a" (data) : "d" (port));
  80042003c8:	8b 55 f4             	mov    -0xc(%rbp),%edx
  80042003cb:	89 55 d4             	mov    %edx,-0x2c(%rbp)
  80042003ce:	8b 55 d4             	mov    -0x2c(%rbp),%edx
  80042003d1:	ec                   	in     (%dx),%al
  80042003d2:	89 c3                	mov    %eax,%ebx
  80042003d4:	88 5d f3             	mov    %bl,-0xd(%rbp)
	return data;
  80042003d7:	c7 45 ec 84 00 00 00 	movl   $0x84,-0x14(%rbp)

static __inline uint8_t
inb(int port)
{
	uint8_t data;
	__asm __volatile("inb %w1,%0" : "=a" (data) : "d" (port));
  80042003de:	8b 55 ec             	mov    -0x14(%rbp),%edx
  80042003e1:	89 55 d4             	mov    %edx,-0x2c(%rbp)
  80042003e4:	8b 55 d4             	mov    -0x2c(%rbp),%edx
  80042003e7:	ec                   	in     (%dx),%al
  80042003e8:	89 c3                	mov    %eax,%ebx
  80042003ea:	88 5d eb             	mov    %bl,-0x15(%rbp)
	return data;
  80042003ed:	c7 45 e4 84 00 00 00 	movl   $0x84,-0x1c(%rbp)

static __inline uint8_t
inb(int port)
{
	uint8_t data;
	__asm __volatile("inb %w1,%0" : "=a" (data) : "d" (port));
  80042003f4:	8b 55 e4             	mov    -0x1c(%rbp),%edx
  80042003f7:	89 55 d4             	mov    %edx,-0x2c(%rbp)
  80042003fa:	8b 55 d4             	mov    -0x2c(%rbp),%edx
  80042003fd:	ec                   	in     (%dx),%al
  80042003fe:	89 c3                	mov    %eax,%ebx
  8004200400:	88 5d e3             	mov    %bl,-0x1d(%rbp)
	return data;
  8004200403:	c7 45 dc 84 00 00 00 	movl   $0x84,-0x24(%rbp)

static __inline uint8_t
inb(int port)
{
	uint8_t data;
	__asm __volatile("inb %w1,%0" : "=a" (data) : "d" (port));
  800420040a:	8b 55 dc             	mov    -0x24(%rbp),%edx
  800420040d:	89 55 d4             	mov    %edx,-0x2c(%rbp)
  8004200410:	8b 55 d4             	mov    -0x2c(%rbp),%edx
  8004200413:	ec                   	in     (%dx),%al
  8004200414:	89 c3                	mov    %eax,%ebx
  8004200416:	88 5d db             	mov    %bl,-0x25(%rbp)
	inb(0x84);
	inb(0x84);
	inb(0x84);
	inb(0x84);
}
  8004200419:	48 83 c4 28          	add    $0x28,%rsp
  800420041d:	5b                   	pop    %rbx
  800420041e:	5d                   	pop    %rbp
  800420041f:	c3                   	retq   

0000008004200420 <serial_proc_data>:

static bool serial_exists;

static int
serial_proc_data(void)
{
  8004200420:	55                   	push   %rbp
  8004200421:	48 89 e5             	mov    %rsp,%rbp
  8004200424:	53                   	push   %rbx
  8004200425:	48 83 ec 18          	sub    $0x18,%rsp
  8004200429:	c7 45 f4 fd 03 00 00 	movl   $0x3fd,-0xc(%rbp)
  8004200430:	8b 55 f4             	mov    -0xc(%rbp),%edx
  8004200433:	89 55 e4             	mov    %edx,-0x1c(%rbp)
  8004200436:	8b 55 e4             	mov    -0x1c(%rbp),%edx
  8004200439:	ec                   	in     (%dx),%al
  800420043a:	89 c3                	mov    %eax,%ebx
  800420043c:	88 5d f3             	mov    %bl,-0xd(%rbp)
	return data;
  800420043f:	0f b6 45 f3          	movzbl -0xd(%rbp),%eax
	if (!(inb(COM1+COM_LSR) & COM_LSR_DATA))
  8004200443:	0f b6 c0             	movzbl %al,%eax
  8004200446:	83 e0 01             	and    $0x1,%eax
  8004200449:	85 c0                	test   %eax,%eax
  800420044b:	75 07                	jne    8004200454 <serial_proc_data+0x34>
		return -1;
  800420044d:	b8 ff ff ff ff       	mov    $0xffffffff,%eax
  8004200452:	eb 1d                	jmp    8004200471 <serial_proc_data+0x51>
  8004200454:	c7 45 ec f8 03 00 00 	movl   $0x3f8,-0x14(%rbp)

static __inline uint8_t
inb(int port)
{
	uint8_t data;
	__asm __volatile("inb %w1,%0" : "=a" (data) : "d" (port));
  800420045b:	8b 55 ec             	mov    -0x14(%rbp),%edx
  800420045e:	89 55 e4             	mov    %edx,-0x1c(%rbp)
  8004200461:	8b 55 e4             	mov    -0x1c(%rbp),%edx
  8004200464:	ec                   	in     (%dx),%al
  8004200465:	89 c3                	mov    %eax,%ebx
  8004200467:	88 5d eb             	mov    %bl,-0x15(%rbp)
	return data;
  800420046a:	0f b6 45 eb          	movzbl -0x15(%rbp),%eax
	return inb(COM1+COM_RX);
  800420046e:	0f b6 c0             	movzbl %al,%eax
}
  8004200471:	48 83 c4 18          	add    $0x18,%rsp
  8004200475:	5b                   	pop    %rbx
  8004200476:	5d                   	pop    %rbp
  8004200477:	c3                   	retq   

0000008004200478 <serial_intr>:

void
serial_intr(void)
{
  8004200478:	55                   	push   %rbp
  8004200479:	48 89 e5             	mov    %rsp,%rbp
	if (serial_exists)
  800420047c:	48 b8 c0 b6 21 04 80 	movabs $0x800421b6c0,%rax
  8004200483:	00 00 00 
  8004200486:	0f b6 00             	movzbl (%rax),%eax
  8004200489:	84 c0                	test   %al,%al
  800420048b:	74 16                	je     80042004a3 <serial_intr+0x2b>
		cons_intr(serial_proc_data);
  800420048d:	48 bf 20 04 20 04 80 	movabs $0x8004200420,%rdi
  8004200494:	00 00 00 
  8004200497:	48 b8 0f 0d 20 04 80 	movabs $0x8004200d0f,%rax
  800420049e:	00 00 00 
  80042004a1:	ff d0                	callq  *%rax
}
  80042004a3:	5d                   	pop    %rbp
  80042004a4:	c3                   	retq   

00000080042004a5 <serial_putc>:

static void
serial_putc(int c)
{
  80042004a5:	55                   	push   %rbp
  80042004a6:	48 89 e5             	mov    %rsp,%rbp
  80042004a9:	53                   	push   %rbx
  80042004aa:	48 83 ec 28          	sub    $0x28,%rsp
  80042004ae:	89 7d d4             	mov    %edi,-0x2c(%rbp)
	int i;

	for (i = 0;
  80042004b1:	c7 45 f4 00 00 00 00 	movl   $0x0,-0xc(%rbp)
  80042004b8:	eb 10                	jmp    80042004ca <serial_putc+0x25>
	     !(inb(COM1 + COM_LSR) & COM_LSR_TXRDY) && i < 12800;
	     i++)
		delay();
  80042004ba:	48 b8 b8 03 20 04 80 	movabs $0x80042003b8,%rax
  80042004c1:	00 00 00 
  80042004c4:	ff d0                	callq  *%rax
{
	int i;

	for (i = 0;
	     !(inb(COM1 + COM_LSR) & COM_LSR_TXRDY) && i < 12800;
	     i++)
  80042004c6:	83 45 f4 01          	addl   $0x1,-0xc(%rbp)
  80042004ca:	c7 45 f0 fd 03 00 00 	movl   $0x3fd,-0x10(%rbp)

static __inline uint8_t
inb(int port)
{
	uint8_t data;
	__asm __volatile("inb %w1,%0" : "=a" (data) : "d" (port));
  80042004d1:	8b 55 f0             	mov    -0x10(%rbp),%edx
  80042004d4:	89 55 d0             	mov    %edx,-0x30(%rbp)
  80042004d7:	8b 55 d0             	mov    -0x30(%rbp),%edx
  80042004da:	ec                   	in     (%dx),%al
  80042004db:	89 c3                	mov    %eax,%ebx
  80042004dd:	88 5d ef             	mov    %bl,-0x11(%rbp)
	return data;
  80042004e0:	0f b6 45 ef          	movzbl -0x11(%rbp),%eax
serial_putc(int c)
{
	int i;

	for (i = 0;
	     !(inb(COM1 + COM_LSR) & COM_LSR_TXRDY) && i < 12800;
  80042004e4:	0f b6 c0             	movzbl %al,%eax
  80042004e7:	83 e0 20             	and    $0x20,%eax
static void
serial_putc(int c)
{
	int i;

	for (i = 0;
  80042004ea:	85 c0                	test   %eax,%eax
  80042004ec:	75 09                	jne    80042004f7 <serial_putc+0x52>
	     !(inb(COM1 + COM_LSR) & COM_LSR_TXRDY) && i < 12800;
  80042004ee:	81 7d f4 ff 31 00 00 	cmpl   $0x31ff,-0xc(%rbp)
  80042004f5:	7e c3                	jle    80042004ba <serial_putc+0x15>
	     i++)
		delay();

	outb(COM1 + COM_TX, c);
  80042004f7:	8b 45 d4             	mov    -0x2c(%rbp),%eax
  80042004fa:	0f b6 c0             	movzbl %al,%eax
  80042004fd:	c7 45 e8 f8 03 00 00 	movl   $0x3f8,-0x18(%rbp)
  8004200504:	88 45 e7             	mov    %al,-0x19(%rbp)
}

static __inline void
outb(int port, uint8_t data)
{
	__asm __volatile("outb %0,%w1" : : "a" (data), "d" (port));
  8004200507:	0f b6 45 e7          	movzbl -0x19(%rbp),%eax
  800420050b:	8b 55 e8             	mov    -0x18(%rbp),%edx
  800420050e:	ee                   	out    %al,(%dx)
}
  800420050f:	48 83 c4 28          	add    $0x28,%rsp
  8004200513:	5b                   	pop    %rbx
  8004200514:	5d                   	pop    %rbp
  8004200515:	c3                   	retq   

0000008004200516 <serial_init>:

static void
serial_init(void)
{
  8004200516:	55                   	push   %rbp
  8004200517:	48 89 e5             	mov    %rsp,%rbp
  800420051a:	53                   	push   %rbx
  800420051b:	48 83 ec 58          	sub    $0x58,%rsp
  800420051f:	c7 45 f4 fa 03 00 00 	movl   $0x3fa,-0xc(%rbp)
  8004200526:	c6 45 f3 00          	movb   $0x0,-0xd(%rbp)
  800420052a:	0f b6 45 f3          	movzbl -0xd(%rbp),%eax
  800420052e:	8b 55 f4             	mov    -0xc(%rbp),%edx
  8004200531:	ee                   	out    %al,(%dx)
  8004200532:	c7 45 ec fb 03 00 00 	movl   $0x3fb,-0x14(%rbp)
  8004200539:	c6 45 eb 80          	movb   $0x80,-0x15(%rbp)
  800420053d:	0f b6 45 eb          	movzbl -0x15(%rbp),%eax
  8004200541:	8b 55 ec             	mov    -0x14(%rbp),%edx
  8004200544:	ee                   	out    %al,(%dx)
  8004200545:	c7 45 e4 f8 03 00 00 	movl   $0x3f8,-0x1c(%rbp)
  800420054c:	c6 45 e3 0c          	movb   $0xc,-0x1d(%rbp)
  8004200550:	0f b6 45 e3          	movzbl -0x1d(%rbp),%eax
  8004200554:	8b 55 e4             	mov    -0x1c(%rbp),%edx
  8004200557:	ee                   	out    %al,(%dx)
  8004200558:	c7 45 dc f9 03 00 00 	movl   $0x3f9,-0x24(%rbp)
  800420055f:	c6 45 db 00          	movb   $0x0,-0x25(%rbp)
  8004200563:	0f b6 45 db          	movzbl -0x25(%rbp),%eax
  8004200567:	8b 55 dc             	mov    -0x24(%rbp),%edx
  800420056a:	ee                   	out    %al,(%dx)
  800420056b:	c7 45 d4 fb 03 00 00 	movl   $0x3fb,-0x2c(%rbp)
  8004200572:	c6 45 d3 03          	movb   $0x3,-0x2d(%rbp)
  8004200576:	0f b6 45 d3          	movzbl -0x2d(%rbp),%eax
  800420057a:	8b 55 d4             	mov    -0x2c(%rbp),%edx
  800420057d:	ee                   	out    %al,(%dx)
  800420057e:	c7 45 cc fc 03 00 00 	movl   $0x3fc,-0x34(%rbp)
  8004200585:	c6 45 cb 00          	movb   $0x0,-0x35(%rbp)
  8004200589:	0f b6 45 cb          	movzbl -0x35(%rbp),%eax
  800420058d:	8b 55 cc             	mov    -0x34(%rbp),%edx
  8004200590:	ee                   	out    %al,(%dx)
  8004200591:	c7 45 c4 f9 03 00 00 	movl   $0x3f9,-0x3c(%rbp)
  8004200598:	c6 45 c3 01          	movb   $0x1,-0x3d(%rbp)
  800420059c:	0f b6 45 c3          	movzbl -0x3d(%rbp),%eax
  80042005a0:	8b 55 c4             	mov    -0x3c(%rbp),%edx
  80042005a3:	ee                   	out    %al,(%dx)
  80042005a4:	c7 45 bc fd 03 00 00 	movl   $0x3fd,-0x44(%rbp)

static __inline uint8_t
inb(int port)
{
	uint8_t data;
	__asm __volatile("inb %w1,%0" : "=a" (data) : "d" (port));
  80042005ab:	8b 55 bc             	mov    -0x44(%rbp),%edx
  80042005ae:	89 55 a4             	mov    %edx,-0x5c(%rbp)
  80042005b1:	8b 55 a4             	mov    -0x5c(%rbp),%edx
  80042005b4:	ec                   	in     (%dx),%al
  80042005b5:	89 c3                	mov    %eax,%ebx
  80042005b7:	88 5d bb             	mov    %bl,-0x45(%rbp)
	return data;
  80042005ba:	0f b6 45 bb          	movzbl -0x45(%rbp),%eax
	// Enable rcv interrupts
	outb(COM1+COM_IER, COM_IER_RDI);

	// Clear any preexisting overrun indications and interrupts
	// Serial port doesn't exist if COM_LSR returns 0xFF
	serial_exists = (inb(COM1+COM_LSR) != 0xFF);
  80042005be:	3c ff                	cmp    $0xff,%al
  80042005c0:	0f 95 c2             	setne  %dl
  80042005c3:	48 b8 c0 b6 21 04 80 	movabs $0x800421b6c0,%rax
  80042005ca:	00 00 00 
  80042005cd:	88 10                	mov    %dl,(%rax)
  80042005cf:	c7 45 b4 fa 03 00 00 	movl   $0x3fa,-0x4c(%rbp)

static __inline uint8_t
inb(int port)
{
	uint8_t data;
	__asm __volatile("inb %w1,%0" : "=a" (data) : "d" (port));
  80042005d6:	8b 55 b4             	mov    -0x4c(%rbp),%edx
  80042005d9:	89 55 a4             	mov    %edx,-0x5c(%rbp)
  80042005dc:	8b 55 a4             	mov    -0x5c(%rbp),%edx
  80042005df:	ec                   	in     (%dx),%al
  80042005e0:	89 c3                	mov    %eax,%ebx
  80042005e2:	88 5d b3             	mov    %bl,-0x4d(%rbp)
	return data;
  80042005e5:	c7 45 ac f8 03 00 00 	movl   $0x3f8,-0x54(%rbp)

static __inline uint8_t
inb(int port)
{
	uint8_t data;
	__asm __volatile("inb %w1,%0" : "=a" (data) : "d" (port));
  80042005ec:	8b 55 ac             	mov    -0x54(%rbp),%edx
  80042005ef:	89 55 a4             	mov    %edx,-0x5c(%rbp)
  80042005f2:	8b 55 a4             	mov    -0x5c(%rbp),%edx
  80042005f5:	ec                   	in     (%dx),%al
  80042005f6:	89 c3                	mov    %eax,%ebx
  80042005f8:	88 5d ab             	mov    %bl,-0x55(%rbp)
	(void) inb(COM1+COM_IIR);
	(void) inb(COM1+COM_RX);

}
  80042005fb:	48 83 c4 58          	add    $0x58,%rsp
  80042005ff:	5b                   	pop    %rbx
  8004200600:	5d                   	pop    %rbp
  8004200601:	c3                   	retq   

0000008004200602 <lpt_putc>:
// For information on PC parallel port programming, see the class References
// page.

static void
lpt_putc(int c)
{
  8004200602:	55                   	push   %rbp
  8004200603:	48 89 e5             	mov    %rsp,%rbp
  8004200606:	53                   	push   %rbx
  8004200607:	48 83 ec 38          	sub    $0x38,%rsp
  800420060b:	89 7d c4             	mov    %edi,-0x3c(%rbp)
	int i;

	for (i = 0; !(inb(0x378+1) & 0x80) && i < 12800; i++)
  800420060e:	c7 45 f4 00 00 00 00 	movl   $0x0,-0xc(%rbp)
  8004200615:	eb 10                	jmp    8004200627 <lpt_putc+0x25>
		delay();
  8004200617:	48 b8 b8 03 20 04 80 	movabs $0x80042003b8,%rax
  800420061e:	00 00 00 
  8004200621:	ff d0                	callq  *%rax
static void
lpt_putc(int c)
{
	int i;

	for (i = 0; !(inb(0x378+1) & 0x80) && i < 12800; i++)
  8004200623:	83 45 f4 01          	addl   $0x1,-0xc(%rbp)
  8004200627:	c7 45 f0 79 03 00 00 	movl   $0x379,-0x10(%rbp)
  800420062e:	8b 55 f0             	mov    -0x10(%rbp),%edx
  8004200631:	89 55 c0             	mov    %edx,-0x40(%rbp)
  8004200634:	8b 55 c0             	mov    -0x40(%rbp),%edx
  8004200637:	ec                   	in     (%dx),%al
  8004200638:	89 c3                	mov    %eax,%ebx
  800420063a:	88 5d ef             	mov    %bl,-0x11(%rbp)
	return data;
  800420063d:	0f b6 45 ef          	movzbl -0x11(%rbp),%eax
  8004200641:	84 c0                	test   %al,%al
  8004200643:	78 09                	js     800420064e <lpt_putc+0x4c>
  8004200645:	81 7d f4 ff 31 00 00 	cmpl   $0x31ff,-0xc(%rbp)
  800420064c:	7e c9                	jle    8004200617 <lpt_putc+0x15>
		delay();
	outb(0x378+0, c);
  800420064e:	8b 45 c4             	mov    -0x3c(%rbp),%eax
  8004200651:	0f b6 c0             	movzbl %al,%eax
  8004200654:	c7 45 e8 78 03 00 00 	movl   $0x378,-0x18(%rbp)
  800420065b:	88 45 e7             	mov    %al,-0x19(%rbp)
}

static __inline void
outb(int port, uint8_t data)
{
	__asm __volatile("outb %0,%w1" : : "a" (data), "d" (port));
  800420065e:	0f b6 45 e7          	movzbl -0x19(%rbp),%eax
  8004200662:	8b 55 e8             	mov    -0x18(%rbp),%edx
  8004200665:	ee                   	out    %al,(%dx)
  8004200666:	c7 45 e0 7a 03 00 00 	movl   $0x37a,-0x20(%rbp)
  800420066d:	c6 45 df 0d          	movb   $0xd,-0x21(%rbp)
  8004200671:	0f b6 45 df          	movzbl -0x21(%rbp),%eax
  8004200675:	8b 55 e0             	mov    -0x20(%rbp),%edx
  8004200678:	ee                   	out    %al,(%dx)
  8004200679:	c7 45 d8 7a 03 00 00 	movl   $0x37a,-0x28(%rbp)
  8004200680:	c6 45 d7 08          	movb   $0x8,-0x29(%rbp)
  8004200684:	0f b6 45 d7          	movzbl -0x29(%rbp),%eax
  8004200688:	8b 55 d8             	mov    -0x28(%rbp),%edx
  800420068b:	ee                   	out    %al,(%dx)
	outb(0x378+2, 0x08|0x04|0x01);
	outb(0x378+2, 0x08);
}
  800420068c:	48 83 c4 38          	add    $0x38,%rsp
  8004200690:	5b                   	pop    %rbx
  8004200691:	5d                   	pop    %rbp
  8004200692:	c3                   	retq   

0000008004200693 <cga_init>:
static uint16_t *crt_buf;
static uint16_t crt_pos;

static void
cga_init(void)
{
  8004200693:	55                   	push   %rbp
  8004200694:	48 89 e5             	mov    %rsp,%rbp
  8004200697:	53                   	push   %rbx
  8004200698:	48 83 ec 38          	sub    $0x38,%rsp
	volatile uint16_t *cp;
	uint16_t was;
	unsigned pos;

	cp = (uint16_t*) (KERNBASE + CGA_BUF);
  800420069c:	c7 45 f0 00 80 0b 04 	movl   $0x40b8000,-0x10(%rbp)
  80042006a3:	c7 45 f4 80 00 00 00 	movl   $0x80,-0xc(%rbp)
	was = *cp;
  80042006aa:	48 8b 45 f0          	mov    -0x10(%rbp),%rax
  80042006ae:	0f b7 00             	movzwl (%rax),%eax
  80042006b1:	66 89 45 ee          	mov    %ax,-0x12(%rbp)
	*cp = (uint16_t) 0xA55A;
  80042006b5:	48 8b 45 f0          	mov    -0x10(%rbp),%rax
  80042006b9:	66 c7 00 5a a5       	movw   $0xa55a,(%rax)
	if (*cp != 0xA55A) {
  80042006be:	48 8b 45 f0          	mov    -0x10(%rbp),%rax
  80042006c2:	0f b7 00             	movzwl (%rax),%eax
  80042006c5:	66 3d 5a a5          	cmp    $0xa55a,%ax
  80042006c9:	74 20                	je     80042006eb <cga_init+0x58>
		cp = (uint16_t*) (KERNBASE + MONO_BUF);
  80042006cb:	c7 45 f0 00 00 0b 04 	movl   $0x40b0000,-0x10(%rbp)
  80042006d2:	c7 45 f4 80 00 00 00 	movl   $0x80,-0xc(%rbp)
		addr_6845 = MONO_BASE;
  80042006d9:	48 b8 c4 b6 21 04 80 	movabs $0x800421b6c4,%rax
  80042006e0:	00 00 00 
  80042006e3:	c7 00 b4 03 00 00    	movl   $0x3b4,(%rax)
  80042006e9:	eb 1b                	jmp    8004200706 <cga_init+0x73>
	} else {
		*cp = was;
  80042006eb:	48 8b 45 f0          	mov    -0x10(%rbp),%rax
  80042006ef:	0f b7 55 ee          	movzwl -0x12(%rbp),%edx
  80042006f3:	66 89 10             	mov    %dx,(%rax)
		addr_6845 = CGA_BASE;
  80042006f6:	48 b8 c4 b6 21 04 80 	movabs $0x800421b6c4,%rax
  80042006fd:	00 00 00 
  8004200700:	c7 00 d4 03 00 00    	movl   $0x3d4,(%rax)
	}

	/* Extract cursor location */
	outb(addr_6845, 14);
  8004200706:	48 b8 c4 b6 21 04 80 	movabs $0x800421b6c4,%rax
  800420070d:	00 00 00 
  8004200710:	8b 00                	mov    (%rax),%eax
  8004200712:	89 45 e4             	mov    %eax,-0x1c(%rbp)
  8004200715:	c6 45 e3 0e          	movb   $0xe,-0x1d(%rbp)
  8004200719:	0f b6 45 e3          	movzbl -0x1d(%rbp),%eax
  800420071d:	8b 55 e4             	mov    -0x1c(%rbp),%edx
  8004200720:	ee                   	out    %al,(%dx)
	pos = inb(addr_6845 + 1) << 8;
  8004200721:	48 b8 c4 b6 21 04 80 	movabs $0x800421b6c4,%rax
  8004200728:	00 00 00 
  800420072b:	8b 00                	mov    (%rax),%eax
  800420072d:	83 c0 01             	add    $0x1,%eax
  8004200730:	89 45 dc             	mov    %eax,-0x24(%rbp)

static __inline uint8_t
inb(int port)
{
	uint8_t data;
	__asm __volatile("inb %w1,%0" : "=a" (data) : "d" (port));
  8004200733:	8b 55 dc             	mov    -0x24(%rbp),%edx
  8004200736:	89 55 c4             	mov    %edx,-0x3c(%rbp)
  8004200739:	8b 55 c4             	mov    -0x3c(%rbp),%edx
  800420073c:	ec                   	in     (%dx),%al
  800420073d:	89 c3                	mov    %eax,%ebx
  800420073f:	88 5d db             	mov    %bl,-0x25(%rbp)
	return data;
  8004200742:	0f b6 45 db          	movzbl -0x25(%rbp),%eax
  8004200746:	0f b6 c0             	movzbl %al,%eax
  8004200749:	c1 e0 08             	shl    $0x8,%eax
  800420074c:	89 45 e8             	mov    %eax,-0x18(%rbp)
	outb(addr_6845, 15);
  800420074f:	48 b8 c4 b6 21 04 80 	movabs $0x800421b6c4,%rax
  8004200756:	00 00 00 
  8004200759:	8b 00                	mov    (%rax),%eax
  800420075b:	89 45 d4             	mov    %eax,-0x2c(%rbp)
  800420075e:	c6 45 d3 0f          	movb   $0xf,-0x2d(%rbp)
}

static __inline void
outb(int port, uint8_t data)
{
	__asm __volatile("outb %0,%w1" : : "a" (data), "d" (port));
  8004200762:	0f b6 45 d3          	movzbl -0x2d(%rbp),%eax
  8004200766:	8b 55 d4             	mov    -0x2c(%rbp),%edx
  8004200769:	ee                   	out    %al,(%dx)
	pos |= inb(addr_6845 + 1);
  800420076a:	48 b8 c4 b6 21 04 80 	movabs $0x800421b6c4,%rax
  8004200771:	00 00 00 
  8004200774:	8b 00                	mov    (%rax),%eax
  8004200776:	83 c0 01             	add    $0x1,%eax
  8004200779:	89 45 cc             	mov    %eax,-0x34(%rbp)

static __inline uint8_t
inb(int port)
{
	uint8_t data;
	__asm __volatile("inb %w1,%0" : "=a" (data) : "d" (port));
  800420077c:	8b 55 cc             	mov    -0x34(%rbp),%edx
  800420077f:	89 55 c4             	mov    %edx,-0x3c(%rbp)
  8004200782:	8b 55 c4             	mov    -0x3c(%rbp),%edx
  8004200785:	ec                   	in     (%dx),%al
  8004200786:	89 c3                	mov    %eax,%ebx
  8004200788:	88 5d cb             	mov    %bl,-0x35(%rbp)
	return data;
  800420078b:	0f b6 45 cb          	movzbl -0x35(%rbp),%eax
  800420078f:	0f b6 c0             	movzbl %al,%eax
  8004200792:	09 45 e8             	or     %eax,-0x18(%rbp)

	crt_buf = (uint16_t*) cp;
  8004200795:	48 b8 c8 b6 21 04 80 	movabs $0x800421b6c8,%rax
  800420079c:	00 00 00 
  800420079f:	48 8b 55 f0          	mov    -0x10(%rbp),%rdx
  80042007a3:	48 89 10             	mov    %rdx,(%rax)
	crt_pos = pos;
  80042007a6:	8b 45 e8             	mov    -0x18(%rbp),%eax
  80042007a9:	89 c2                	mov    %eax,%edx
  80042007ab:	48 b8 d0 b6 21 04 80 	movabs $0x800421b6d0,%rax
  80042007b2:	00 00 00 
  80042007b5:	66 89 10             	mov    %dx,(%rax)
}
  80042007b8:	48 83 c4 38          	add    $0x38,%rsp
  80042007bc:	5b                   	pop    %rbx
  80042007bd:	5d                   	pop    %rbp
  80042007be:	c3                   	retq   

00000080042007bf <cga_putc>:



static void
cga_putc(int c)
{
  80042007bf:	55                   	push   %rbp
  80042007c0:	48 89 e5             	mov    %rsp,%rbp
  80042007c3:	48 83 ec 40          	sub    $0x40,%rsp
  80042007c7:	89 7d cc             	mov    %edi,-0x34(%rbp)
	// if no attribute given, then use black on white
	if (!(c & ~0xFF))
  80042007ca:	8b 45 cc             	mov    -0x34(%rbp),%eax
  80042007cd:	b0 00                	mov    $0x0,%al
  80042007cf:	85 c0                	test   %eax,%eax
  80042007d1:	75 07                	jne    80042007da <cga_putc+0x1b>
		c |= 0x0700;
  80042007d3:	81 4d cc 00 07 00 00 	orl    $0x700,-0x34(%rbp)

	switch (c & 0xff) {
  80042007da:	8b 45 cc             	mov    -0x34(%rbp),%eax
  80042007dd:	25 ff 00 00 00       	and    $0xff,%eax
  80042007e2:	83 f8 09             	cmp    $0x9,%eax
  80042007e5:	0f 84 f9 00 00 00    	je     80042008e4 <cga_putc+0x125>
  80042007eb:	83 f8 09             	cmp    $0x9,%eax
  80042007ee:	7f 0a                	jg     80042007fa <cga_putc+0x3b>
  80042007f0:	83 f8 08             	cmp    $0x8,%eax
  80042007f3:	74 18                	je     800420080d <cga_putc+0x4e>
  80042007f5:	e9 41 01 00 00       	jmpq   800420093b <cga_putc+0x17c>
  80042007fa:	83 f8 0a             	cmp    $0xa,%eax
  80042007fd:	74 74                	je     8004200873 <cga_putc+0xb4>
  80042007ff:	83 f8 0d             	cmp    $0xd,%eax
  8004200802:	0f 84 88 00 00 00    	je     8004200890 <cga_putc+0xd1>
  8004200808:	e9 2e 01 00 00       	jmpq   800420093b <cga_putc+0x17c>
	case '\b':
		if (crt_pos > 0) {
  800420080d:	48 b8 d0 b6 21 04 80 	movabs $0x800421b6d0,%rax
  8004200814:	00 00 00 
  8004200817:	0f b7 00             	movzwl (%rax),%eax
  800420081a:	66 85 c0             	test   %ax,%ax
  800420081d:	0f 84 53 01 00 00    	je     8004200976 <cga_putc+0x1b7>
			crt_pos--;
  8004200823:	48 b8 d0 b6 21 04 80 	movabs $0x800421b6d0,%rax
  800420082a:	00 00 00 
  800420082d:	0f b7 00             	movzwl (%rax),%eax
  8004200830:	8d 50 ff             	lea    -0x1(%rax),%edx
  8004200833:	48 b8 d0 b6 21 04 80 	movabs $0x800421b6d0,%rax
  800420083a:	00 00 00 
  800420083d:	66 89 10             	mov    %dx,(%rax)
			crt_buf[crt_pos] = (c & ~0xff) | ' ';
  8004200840:	48 b8 c8 b6 21 04 80 	movabs $0x800421b6c8,%rax
  8004200847:	00 00 00 
  800420084a:	48 8b 10             	mov    (%rax),%rdx
  800420084d:	48 b8 d0 b6 21 04 80 	movabs $0x800421b6d0,%rax
  8004200854:	00 00 00 
  8004200857:	0f b7 00             	movzwl (%rax),%eax
  800420085a:	0f b7 c0             	movzwl %ax,%eax
  800420085d:	48 01 c0             	add    %rax,%rax
  8004200860:	48 01 c2             	add    %rax,%rdx
  8004200863:	8b 45 cc             	mov    -0x34(%rbp),%eax
  8004200866:	b0 00                	mov    $0x0,%al
  8004200868:	83 c8 20             	or     $0x20,%eax
  800420086b:	66 89 02             	mov    %ax,(%rdx)
		}
		break;
  800420086e:	e9 03 01 00 00       	jmpq   8004200976 <cga_putc+0x1b7>
	case '\n':
		crt_pos += CRT_COLS;
  8004200873:	48 b8 d0 b6 21 04 80 	movabs $0x800421b6d0,%rax
  800420087a:	00 00 00 
  800420087d:	0f b7 00             	movzwl (%rax),%eax
  8004200880:	8d 50 50             	lea    0x50(%rax),%edx
  8004200883:	48 b8 d0 b6 21 04 80 	movabs $0x800421b6d0,%rax
  800420088a:	00 00 00 
  800420088d:	66 89 10             	mov    %dx,(%rax)
		/* fallthru */
	case '\r':
		crt_pos -= (crt_pos % CRT_COLS);
  8004200890:	48 b8 d0 b6 21 04 80 	movabs $0x800421b6d0,%rax
  8004200897:	00 00 00 
  800420089a:	0f b7 30             	movzwl (%rax),%esi
  800420089d:	48 b8 d0 b6 21 04 80 	movabs $0x800421b6d0,%rax
  80042008a4:	00 00 00 
  80042008a7:	0f b7 08             	movzwl (%rax),%ecx
  80042008aa:	0f b7 c1             	movzwl %cx,%eax
  80042008ad:	69 c0 cd cc 00 00    	imul   $0xcccd,%eax,%eax
  80042008b3:	c1 e8 10             	shr    $0x10,%eax
  80042008b6:	89 c2                	mov    %eax,%edx
  80042008b8:	66 c1 ea 06          	shr    $0x6,%dx
  80042008bc:	89 d0                	mov    %edx,%eax
  80042008be:	c1 e0 02             	shl    $0x2,%eax
  80042008c1:	01 d0                	add    %edx,%eax
  80042008c3:	c1 e0 04             	shl    $0x4,%eax
  80042008c6:	89 ca                	mov    %ecx,%edx
  80042008c8:	66 29 c2             	sub    %ax,%dx
  80042008cb:	89 f0                	mov    %esi,%eax
  80042008cd:	66 29 d0             	sub    %dx,%ax
  80042008d0:	89 c2                	mov    %eax,%edx
  80042008d2:	48 b8 d0 b6 21 04 80 	movabs $0x800421b6d0,%rax
  80042008d9:	00 00 00 
  80042008dc:	66 89 10             	mov    %dx,(%rax)
		break;
  80042008df:	e9 93 00 00 00       	jmpq   8004200977 <cga_putc+0x1b8>
	case '\t':
		cons_putc(' ');
  80042008e4:	bf 20 00 00 00       	mov    $0x20,%edi
  80042008e9:	48 b8 4e 0e 20 04 80 	movabs $0x8004200e4e,%rax
  80042008f0:	00 00 00 
  80042008f3:	ff d0                	callq  *%rax
		cons_putc(' ');
  80042008f5:	bf 20 00 00 00       	mov    $0x20,%edi
  80042008fa:	48 b8 4e 0e 20 04 80 	movabs $0x8004200e4e,%rax
  8004200901:	00 00 00 
  8004200904:	ff d0                	callq  *%rax
		cons_putc(' ');
  8004200906:	bf 20 00 00 00       	mov    $0x20,%edi
  800420090b:	48 b8 4e 0e 20 04 80 	movabs $0x8004200e4e,%rax
  8004200912:	00 00 00 
  8004200915:	ff d0                	callq  *%rax
		cons_putc(' ');
  8004200917:	bf 20 00 00 00       	mov    $0x20,%edi
  800420091c:	48 b8 4e 0e 20 04 80 	movabs $0x8004200e4e,%rax
  8004200923:	00 00 00 
  8004200926:	ff d0                	callq  *%rax
		cons_putc(' ');
  8004200928:	bf 20 00 00 00       	mov    $0x20,%edi
  800420092d:	48 b8 4e 0e 20 04 80 	movabs $0x8004200e4e,%rax
  8004200934:	00 00 00 
  8004200937:	ff d0                	callq  *%rax
		break;
  8004200939:	eb 3c                	jmp    8004200977 <cga_putc+0x1b8>
	default:
		crt_buf[crt_pos++] = c;		/* write the character */
  800420093b:	48 b8 c8 b6 21 04 80 	movabs $0x800421b6c8,%rax
  8004200942:	00 00 00 
  8004200945:	48 8b 10             	mov    (%rax),%rdx
  8004200948:	48 b8 d0 b6 21 04 80 	movabs $0x800421b6d0,%rax
  800420094f:	00 00 00 
  8004200952:	0f b7 00             	movzwl (%rax),%eax
  8004200955:	0f b7 c8             	movzwl %ax,%ecx
  8004200958:	48 01 c9             	add    %rcx,%rcx
  800420095b:	48 01 d1             	add    %rdx,%rcx
  800420095e:	8b 55 cc             	mov    -0x34(%rbp),%edx
  8004200961:	66 89 11             	mov    %dx,(%rcx)
  8004200964:	8d 50 01             	lea    0x1(%rax),%edx
  8004200967:	48 b8 d0 b6 21 04 80 	movabs $0x800421b6d0,%rax
  800420096e:	00 00 00 
  8004200971:	66 89 10             	mov    %dx,(%rax)
		break;
  8004200974:	eb 01                	jmp    8004200977 <cga_putc+0x1b8>
	case '\b':
		if (crt_pos > 0) {
			crt_pos--;
			crt_buf[crt_pos] = (c & ~0xff) | ' ';
		}
		break;
  8004200976:	90                   	nop
	}

	// When the crt pos is more than that of CRT_SIZE (if output exceeds CRT_SIZE), it adds one more row at the end 
	// filling it up with ' ' (scrolls down to the next line). The data from the second line of the screen to the end 
	// is put into crt_buf, effectively removing the first line of the screen
	if (crt_pos >= CRT_SIZE) {
  8004200977:	48 b8 d0 b6 21 04 80 	movabs $0x800421b6d0,%rax
  800420097e:	00 00 00 
  8004200981:	0f b7 00             	movzwl (%rax),%eax
  8004200984:	66 3d cf 07          	cmp    $0x7cf,%ax
  8004200988:	0f 86 89 00 00 00    	jbe    8004200a17 <cga_putc+0x258>
		int i;
		memmove(crt_buf, crt_buf + CRT_COLS, (CRT_SIZE - CRT_COLS) * sizeof(uint16_t));
  800420098e:	48 b8 c8 b6 21 04 80 	movabs $0x800421b6c8,%rax
  8004200995:	00 00 00 
  8004200998:	48 8b 00             	mov    (%rax),%rax
  800420099b:	48 8d 88 a0 00 00 00 	lea    0xa0(%rax),%rcx
  80042009a2:	48 b8 c8 b6 21 04 80 	movabs $0x800421b6c8,%rax
  80042009a9:	00 00 00 
  80042009ac:	48 8b 00             	mov    (%rax),%rax
  80042009af:	ba 00 0f 00 00       	mov    $0xf00,%edx
  80042009b4:	48 89 ce             	mov    %rcx,%rsi
  80042009b7:	48 89 c7             	mov    %rax,%rdi
  80042009ba:	48 b8 e6 2e 20 04 80 	movabs $0x8004202ee6,%rax
  80042009c1:	00 00 00 
  80042009c4:	ff d0                	callq  *%rax
		for (i = CRT_SIZE - CRT_COLS; i < CRT_SIZE; i++)
  80042009c6:	c7 45 fc 80 07 00 00 	movl   $0x780,-0x4(%rbp)
  80042009cd:	eb 22                	jmp    80042009f1 <cga_putc+0x232>
			crt_buf[i] = 0x0700 | ' ';
  80042009cf:	48 b8 c8 b6 21 04 80 	movabs $0x800421b6c8,%rax
  80042009d6:	00 00 00 
  80042009d9:	48 8b 00             	mov    (%rax),%rax
  80042009dc:	8b 55 fc             	mov    -0x4(%rbp),%edx
  80042009df:	48 63 d2             	movslq %edx,%rdx
  80042009e2:	48 01 d2             	add    %rdx,%rdx
  80042009e5:	48 01 d0             	add    %rdx,%rax
  80042009e8:	66 c7 00 20 07       	movw   $0x720,(%rax)
	// filling it up with ' ' (scrolls down to the next line). The data from the second line of the screen to the end 
	// is put into crt_buf, effectively removing the first line of the screen
	if (crt_pos >= CRT_SIZE) {
		int i;
		memmove(crt_buf, crt_buf + CRT_COLS, (CRT_SIZE - CRT_COLS) * sizeof(uint16_t));
		for (i = CRT_SIZE - CRT_COLS; i < CRT_SIZE; i++)
  80042009ed:	83 45 fc 01          	addl   $0x1,-0x4(%rbp)
  80042009f1:	81 7d fc cf 07 00 00 	cmpl   $0x7cf,-0x4(%rbp)
  80042009f8:	7e d5                	jle    80042009cf <cga_putc+0x210>
			crt_buf[i] = 0x0700 | ' ';
		crt_pos -= CRT_COLS;
  80042009fa:	48 b8 d0 b6 21 04 80 	movabs $0x800421b6d0,%rax
  8004200a01:	00 00 00 
  8004200a04:	0f b7 00             	movzwl (%rax),%eax
  8004200a07:	8d 50 b0             	lea    -0x50(%rax),%edx
  8004200a0a:	48 b8 d0 b6 21 04 80 	movabs $0x800421b6d0,%rax
  8004200a11:	00 00 00 
  8004200a14:	66 89 10             	mov    %dx,(%rax)
	}

	/* move that little blinky thing */
	outb(addr_6845, 14);
  8004200a17:	48 b8 c4 b6 21 04 80 	movabs $0x800421b6c4,%rax
  8004200a1e:	00 00 00 
  8004200a21:	8b 00                	mov    (%rax),%eax
  8004200a23:	89 45 f8             	mov    %eax,-0x8(%rbp)
  8004200a26:	c6 45 f7 0e          	movb   $0xe,-0x9(%rbp)
}

static __inline void
outb(int port, uint8_t data)
{
	__asm __volatile("outb %0,%w1" : : "a" (data), "d" (port));
  8004200a2a:	0f b6 45 f7          	movzbl -0x9(%rbp),%eax
  8004200a2e:	8b 55 f8             	mov    -0x8(%rbp),%edx
  8004200a31:	ee                   	out    %al,(%dx)
	outb(addr_6845 + 1, crt_pos >> 8);
  8004200a32:	48 b8 d0 b6 21 04 80 	movabs $0x800421b6d0,%rax
  8004200a39:	00 00 00 
  8004200a3c:	0f b7 00             	movzwl (%rax),%eax
  8004200a3f:	66 c1 e8 08          	shr    $0x8,%ax
  8004200a43:	0f b6 c0             	movzbl %al,%eax
  8004200a46:	48 ba c4 b6 21 04 80 	movabs $0x800421b6c4,%rdx
  8004200a4d:	00 00 00 
  8004200a50:	8b 12                	mov    (%rdx),%edx
  8004200a52:	83 c2 01             	add    $0x1,%edx
  8004200a55:	89 55 f0             	mov    %edx,-0x10(%rbp)
  8004200a58:	88 45 ef             	mov    %al,-0x11(%rbp)
  8004200a5b:	0f b6 45 ef          	movzbl -0x11(%rbp),%eax
  8004200a5f:	8b 55 f0             	mov    -0x10(%rbp),%edx
  8004200a62:	ee                   	out    %al,(%dx)
	outb(addr_6845, 15);
  8004200a63:	48 b8 c4 b6 21 04 80 	movabs $0x800421b6c4,%rax
  8004200a6a:	00 00 00 
  8004200a6d:	8b 00                	mov    (%rax),%eax
  8004200a6f:	89 45 e8             	mov    %eax,-0x18(%rbp)
  8004200a72:	c6 45 e7 0f          	movb   $0xf,-0x19(%rbp)
  8004200a76:	0f b6 45 e7          	movzbl -0x19(%rbp),%eax
  8004200a7a:	8b 55 e8             	mov    -0x18(%rbp),%edx
  8004200a7d:	ee                   	out    %al,(%dx)
	outb(addr_6845 + 1, crt_pos);
  8004200a7e:	48 b8 d0 b6 21 04 80 	movabs $0x800421b6d0,%rax
  8004200a85:	00 00 00 
  8004200a88:	0f b7 00             	movzwl (%rax),%eax
  8004200a8b:	0f b6 c0             	movzbl %al,%eax
  8004200a8e:	48 ba c4 b6 21 04 80 	movabs $0x800421b6c4,%rdx
  8004200a95:	00 00 00 
  8004200a98:	8b 12                	mov    (%rdx),%edx
  8004200a9a:	83 c2 01             	add    $0x1,%edx
  8004200a9d:	89 55 e0             	mov    %edx,-0x20(%rbp)
  8004200aa0:	88 45 df             	mov    %al,-0x21(%rbp)
  8004200aa3:	0f b6 45 df          	movzbl -0x21(%rbp),%eax
  8004200aa7:	8b 55 e0             	mov    -0x20(%rbp),%edx
  8004200aaa:	ee                   	out    %al,(%dx)
}
  8004200aab:	c9                   	leaveq 
  8004200aac:	c3                   	retq   

0000008004200aad <kbd_proc_data>:
 * Get data from the keyboard.  If we finish a character, return it.  Else 0.
 * Return -1 if no data.
 */
static int
kbd_proc_data(void)
{
  8004200aad:	55                   	push   %rbp
  8004200aae:	48 89 e5             	mov    %rsp,%rbp
  8004200ab1:	53                   	push   %rbx
  8004200ab2:	48 83 ec 38          	sub    $0x38,%rsp
  8004200ab6:	c7 45 e4 64 00 00 00 	movl   $0x64,-0x1c(%rbp)

static __inline uint8_t
inb(int port)
{
	uint8_t data;
	__asm __volatile("inb %w1,%0" : "=a" (data) : "d" (port));
  8004200abd:	8b 55 e4             	mov    -0x1c(%rbp),%edx
  8004200ac0:	89 55 cc             	mov    %edx,-0x34(%rbp)
  8004200ac3:	8b 55 cc             	mov    -0x34(%rbp),%edx
  8004200ac6:	ec                   	in     (%dx),%al
  8004200ac7:	89 c3                	mov    %eax,%ebx
  8004200ac9:	88 5d e3             	mov    %bl,-0x1d(%rbp)
	return data;
  8004200acc:	0f b6 45 e3          	movzbl -0x1d(%rbp),%eax
	int c;
	uint8_t data;
	static uint32_t shift;

	if ((inb(KBSTATP) & KBS_DIB) == 0)
  8004200ad0:	0f b6 c0             	movzbl %al,%eax
  8004200ad3:	83 e0 01             	and    $0x1,%eax
  8004200ad6:	85 c0                	test   %eax,%eax
  8004200ad8:	75 0a                	jne    8004200ae4 <kbd_proc_data+0x37>
		return -1;
  8004200ada:	b8 ff ff ff ff       	mov    $0xffffffff,%eax
  8004200adf:	e9 02 02 00 00       	jmpq   8004200ce6 <kbd_proc_data+0x239>
  8004200ae4:	c7 45 dc 60 00 00 00 	movl   $0x60,-0x24(%rbp)

static __inline uint8_t
inb(int port)
{
	uint8_t data;
	__asm __volatile("inb %w1,%0" : "=a" (data) : "d" (port));
  8004200aeb:	8b 55 dc             	mov    -0x24(%rbp),%edx
  8004200aee:	89 55 cc             	mov    %edx,-0x34(%rbp)
  8004200af1:	8b 55 cc             	mov    -0x34(%rbp),%edx
  8004200af4:	ec                   	in     (%dx),%al
  8004200af5:	89 c3                	mov    %eax,%ebx
  8004200af7:	88 5d db             	mov    %bl,-0x25(%rbp)
	return data;
  8004200afa:	0f b6 45 db          	movzbl -0x25(%rbp),%eax

	data = inb(KBDATAP);
  8004200afe:	88 45 eb             	mov    %al,-0x15(%rbp)

	if (data == 0xE0) {
  8004200b01:	80 7d eb e0          	cmpb   $0xe0,-0x15(%rbp)
  8004200b05:	75 27                	jne    8004200b2e <kbd_proc_data+0x81>
		// E0 escape character
		shift |= E0ESC;
  8004200b07:	48 b8 e8 b8 21 04 80 	movabs $0x800421b8e8,%rax
  8004200b0e:	00 00 00 
  8004200b11:	8b 00                	mov    (%rax),%eax
  8004200b13:	89 c2                	mov    %eax,%edx
  8004200b15:	83 ca 40             	or     $0x40,%edx
  8004200b18:	48 b8 e8 b8 21 04 80 	movabs $0x800421b8e8,%rax
  8004200b1f:	00 00 00 
  8004200b22:	89 10                	mov    %edx,(%rax)
		return 0;
  8004200b24:	b8 00 00 00 00       	mov    $0x0,%eax
  8004200b29:	e9 b8 01 00 00       	jmpq   8004200ce6 <kbd_proc_data+0x239>
	} else if (data & 0x80) {
  8004200b2e:	0f b6 45 eb          	movzbl -0x15(%rbp),%eax
  8004200b32:	84 c0                	test   %al,%al
  8004200b34:	79 65                	jns    8004200b9b <kbd_proc_data+0xee>
		// Key released
		data = (shift & E0ESC ? data : data & 0x7F);
  8004200b36:	48 b8 e8 b8 21 04 80 	movabs $0x800421b8e8,%rax
  8004200b3d:	00 00 00 
  8004200b40:	8b 00                	mov    (%rax),%eax
  8004200b42:	83 e0 40             	and    $0x40,%eax
  8004200b45:	85 c0                	test   %eax,%eax
  8004200b47:	75 09                	jne    8004200b52 <kbd_proc_data+0xa5>
  8004200b49:	0f b6 45 eb          	movzbl -0x15(%rbp),%eax
  8004200b4d:	83 e0 7f             	and    $0x7f,%eax
  8004200b50:	eb 04                	jmp    8004200b56 <kbd_proc_data+0xa9>
  8004200b52:	0f b6 45 eb          	movzbl -0x15(%rbp),%eax
  8004200b56:	88 45 eb             	mov    %al,-0x15(%rbp)
		shift &= ~(shiftcode[data] | E0ESC);
  8004200b59:	0f b6 45 eb          	movzbl -0x15(%rbp),%eax
  8004200b5d:	48 ba 60 b0 21 04 80 	movabs $0x800421b060,%rdx
  8004200b64:	00 00 00 
  8004200b67:	48 98                	cltq   
  8004200b69:	0f b6 04 02          	movzbl (%rdx,%rax,1),%eax
  8004200b6d:	83 c8 40             	or     $0x40,%eax
  8004200b70:	0f b6 c0             	movzbl %al,%eax
  8004200b73:	f7 d0                	not    %eax
  8004200b75:	89 c2                	mov    %eax,%edx
  8004200b77:	48 b8 e8 b8 21 04 80 	movabs $0x800421b8e8,%rax
  8004200b7e:	00 00 00 
  8004200b81:	8b 00                	mov    (%rax),%eax
  8004200b83:	21 c2                	and    %eax,%edx
  8004200b85:	48 b8 e8 b8 21 04 80 	movabs $0x800421b8e8,%rax
  8004200b8c:	00 00 00 
  8004200b8f:	89 10                	mov    %edx,(%rax)
		return 0;
  8004200b91:	b8 00 00 00 00       	mov    $0x0,%eax
  8004200b96:	e9 4b 01 00 00       	jmpq   8004200ce6 <kbd_proc_data+0x239>
	} else if (shift & E0ESC) {
  8004200b9b:	48 b8 e8 b8 21 04 80 	movabs $0x800421b8e8,%rax
  8004200ba2:	00 00 00 
  8004200ba5:	8b 00                	mov    (%rax),%eax
  8004200ba7:	83 e0 40             	and    $0x40,%eax
  8004200baa:	85 c0                	test   %eax,%eax
  8004200bac:	74 21                	je     8004200bcf <kbd_proc_data+0x122>
		// Last character was an E0 escape; or with 0x80
		data |= 0x80;
  8004200bae:	80 4d eb 80          	orb    $0x80,-0x15(%rbp)
		shift &= ~E0ESC;
  8004200bb2:	48 b8 e8 b8 21 04 80 	movabs $0x800421b8e8,%rax
  8004200bb9:	00 00 00 
  8004200bbc:	8b 00                	mov    (%rax),%eax
  8004200bbe:	89 c2                	mov    %eax,%edx
  8004200bc0:	83 e2 bf             	and    $0xffffffbf,%edx
  8004200bc3:	48 b8 e8 b8 21 04 80 	movabs $0x800421b8e8,%rax
  8004200bca:	00 00 00 
  8004200bcd:	89 10                	mov    %edx,(%rax)
	}

	shift |= shiftcode[data];
  8004200bcf:	0f b6 45 eb          	movzbl -0x15(%rbp),%eax
  8004200bd3:	48 ba 60 b0 21 04 80 	movabs $0x800421b060,%rdx
  8004200bda:	00 00 00 
  8004200bdd:	48 98                	cltq   
  8004200bdf:	0f b6 04 02          	movzbl (%rdx,%rax,1),%eax
  8004200be3:	0f b6 d0             	movzbl %al,%edx
  8004200be6:	48 b8 e8 b8 21 04 80 	movabs $0x800421b8e8,%rax
  8004200bed:	00 00 00 
  8004200bf0:	8b 00                	mov    (%rax),%eax
  8004200bf2:	09 c2                	or     %eax,%edx
  8004200bf4:	48 b8 e8 b8 21 04 80 	movabs $0x800421b8e8,%rax
  8004200bfb:	00 00 00 
  8004200bfe:	89 10                	mov    %edx,(%rax)
	shift ^= togglecode[data];
  8004200c00:	0f b6 45 eb          	movzbl -0x15(%rbp),%eax
  8004200c04:	48 ba 60 b1 21 04 80 	movabs $0x800421b160,%rdx
  8004200c0b:	00 00 00 
  8004200c0e:	48 98                	cltq   
  8004200c10:	0f b6 04 02          	movzbl (%rdx,%rax,1),%eax
  8004200c14:	0f b6 d0             	movzbl %al,%edx
  8004200c17:	48 b8 e8 b8 21 04 80 	movabs $0x800421b8e8,%rax
  8004200c1e:	00 00 00 
  8004200c21:	8b 00                	mov    (%rax),%eax
  8004200c23:	31 c2                	xor    %eax,%edx
  8004200c25:	48 b8 e8 b8 21 04 80 	movabs $0x800421b8e8,%rax
  8004200c2c:	00 00 00 
  8004200c2f:	89 10                	mov    %edx,(%rax)

	c = charcode[shift & (CTL | SHIFT)][data];
  8004200c31:	48 b8 e8 b8 21 04 80 	movabs $0x800421b8e8,%rax
  8004200c38:	00 00 00 
  8004200c3b:	8b 00                	mov    (%rax),%eax
  8004200c3d:	89 c2                	mov    %eax,%edx
  8004200c3f:	83 e2 03             	and    $0x3,%edx
  8004200c42:	48 b8 60 b5 21 04 80 	movabs $0x800421b560,%rax
  8004200c49:	00 00 00 
  8004200c4c:	89 d2                	mov    %edx,%edx
  8004200c4e:	48 8b 14 d0          	mov    (%rax,%rdx,8),%rdx
  8004200c52:	0f b6 45 eb          	movzbl -0x15(%rbp),%eax
  8004200c56:	48 01 d0             	add    %rdx,%rax
  8004200c59:	0f b6 00             	movzbl (%rax),%eax
  8004200c5c:	0f b6 c0             	movzbl %al,%eax
  8004200c5f:	89 45 ec             	mov    %eax,-0x14(%rbp)
	if (shift & CAPSLOCK) {
  8004200c62:	48 b8 e8 b8 21 04 80 	movabs $0x800421b8e8,%rax
  8004200c69:	00 00 00 
  8004200c6c:	8b 00                	mov    (%rax),%eax
  8004200c6e:	83 e0 08             	and    $0x8,%eax
  8004200c71:	85 c0                	test   %eax,%eax
  8004200c73:	74 22                	je     8004200c97 <kbd_proc_data+0x1ea>
		if ('a' <= c && c <= 'z')
  8004200c75:	83 7d ec 60          	cmpl   $0x60,-0x14(%rbp)
  8004200c79:	7e 0c                	jle    8004200c87 <kbd_proc_data+0x1da>
  8004200c7b:	83 7d ec 7a          	cmpl   $0x7a,-0x14(%rbp)
  8004200c7f:	7f 06                	jg     8004200c87 <kbd_proc_data+0x1da>
			c += 'A' - 'a';
  8004200c81:	83 6d ec 20          	subl   $0x20,-0x14(%rbp)
  8004200c85:	eb 10                	jmp    8004200c97 <kbd_proc_data+0x1ea>
		else if ('A' <= c && c <= 'Z')
  8004200c87:	83 7d ec 40          	cmpl   $0x40,-0x14(%rbp)
  8004200c8b:	7e 0a                	jle    8004200c97 <kbd_proc_data+0x1ea>
  8004200c8d:	83 7d ec 5a          	cmpl   $0x5a,-0x14(%rbp)
  8004200c91:	7f 04                	jg     8004200c97 <kbd_proc_data+0x1ea>
			c += 'a' - 'A';
  8004200c93:	83 45 ec 20          	addl   $0x20,-0x14(%rbp)
	}

	// Process special keys
	// Ctrl-Alt-Del: reboot
	if (!(~shift & (CTL | ALT)) && c == KEY_DEL) {
  8004200c97:	48 b8 e8 b8 21 04 80 	movabs $0x800421b8e8,%rax
  8004200c9e:	00 00 00 
  8004200ca1:	8b 00                	mov    (%rax),%eax
  8004200ca3:	f7 d0                	not    %eax
  8004200ca5:	83 e0 06             	and    $0x6,%eax
  8004200ca8:	85 c0                	test   %eax,%eax
  8004200caa:	75 37                	jne    8004200ce3 <kbd_proc_data+0x236>
  8004200cac:	81 7d ec e9 00 00 00 	cmpl   $0xe9,-0x14(%rbp)
  8004200cb3:	75 2e                	jne    8004200ce3 <kbd_proc_data+0x236>
		cprintf("Rebooting!\n");
  8004200cb5:	48 bf 86 93 20 04 80 	movabs $0x8004209386,%rdi
  8004200cbc:	00 00 00 
  8004200cbf:	b8 00 00 00 00       	mov    $0x0,%eax
  8004200cc4:	48 ba 22 16 20 04 80 	movabs $0x8004201622,%rdx
  8004200ccb:	00 00 00 
  8004200cce:	ff d2                	callq  *%rdx
  8004200cd0:	c7 45 d4 92 00 00 00 	movl   $0x92,-0x2c(%rbp)
  8004200cd7:	c6 45 d3 03          	movb   $0x3,-0x2d(%rbp)
}

static __inline void
outb(int port, uint8_t data)
{
	__asm __volatile("outb %0,%w1" : : "a" (data), "d" (port));
  8004200cdb:	0f b6 45 d3          	movzbl -0x2d(%rbp),%eax
  8004200cdf:	8b 55 d4             	mov    -0x2c(%rbp),%edx
  8004200ce2:	ee                   	out    %al,(%dx)
		outb(0x92, 0x3); // courtesy of Chris Frost
	}

	return c;
  8004200ce3:	8b 45 ec             	mov    -0x14(%rbp),%eax
}
  8004200ce6:	48 83 c4 38          	add    $0x38,%rsp
  8004200cea:	5b                   	pop    %rbx
  8004200ceb:	5d                   	pop    %rbp
  8004200cec:	c3                   	retq   

0000008004200ced <kbd_intr>:

void
kbd_intr(void)
{
  8004200ced:	55                   	push   %rbp
  8004200cee:	48 89 e5             	mov    %rsp,%rbp
	cons_intr(kbd_proc_data);
  8004200cf1:	48 bf ad 0a 20 04 80 	movabs $0x8004200aad,%rdi
  8004200cf8:	00 00 00 
  8004200cfb:	48 b8 0f 0d 20 04 80 	movabs $0x8004200d0f,%rax
  8004200d02:	00 00 00 
  8004200d05:	ff d0                	callq  *%rax
}
  8004200d07:	5d                   	pop    %rbp
  8004200d08:	c3                   	retq   

0000008004200d09 <kbd_init>:

static void
kbd_init(void)
{
  8004200d09:	55                   	push   %rbp
  8004200d0a:	48 89 e5             	mov    %rsp,%rbp
}
  8004200d0d:	5d                   	pop    %rbp
  8004200d0e:	c3                   	retq   

0000008004200d0f <cons_intr>:

// called by device interrupt routines to feed input characters
// into the circular console input buffer.
static void
cons_intr(int (*proc)(void))
{
  8004200d0f:	55                   	push   %rbp
  8004200d10:	48 89 e5             	mov    %rsp,%rbp
  8004200d13:	48 83 ec 20          	sub    $0x20,%rsp
  8004200d17:	48 89 7d e8          	mov    %rdi,-0x18(%rbp)
	int c;

	while ((c = (*proc)()) != -1) {
  8004200d1b:	eb 6c                	jmp    8004200d89 <cons_intr+0x7a>
		if (c == 0)
  8004200d1d:	83 7d fc 00          	cmpl   $0x0,-0x4(%rbp)
  8004200d21:	74 65                	je     8004200d88 <cons_intr+0x79>
			continue;
		cons.buf[cons.wpos++] = c;
  8004200d23:	48 b8 e0 b6 21 04 80 	movabs $0x800421b6e0,%rax
  8004200d2a:	00 00 00 
  8004200d2d:	8b 80 04 02 00 00    	mov    0x204(%rax),%eax
  8004200d33:	8b 55 fc             	mov    -0x4(%rbp),%edx
  8004200d36:	89 d6                	mov    %edx,%esi
  8004200d38:	48 b9 e0 b6 21 04 80 	movabs $0x800421b6e0,%rcx
  8004200d3f:	00 00 00 
  8004200d42:	89 c2                	mov    %eax,%edx
  8004200d44:	40 88 34 11          	mov    %sil,(%rcx,%rdx,1)
  8004200d48:	8d 50 01             	lea    0x1(%rax),%edx
  8004200d4b:	48 b8 e0 b6 21 04 80 	movabs $0x800421b6e0,%rax
  8004200d52:	00 00 00 
  8004200d55:	89 90 04 02 00 00    	mov    %edx,0x204(%rax)
		if (cons.wpos == CONSBUFSIZE)
  8004200d5b:	48 b8 e0 b6 21 04 80 	movabs $0x800421b6e0,%rax
  8004200d62:	00 00 00 
  8004200d65:	8b 80 04 02 00 00    	mov    0x204(%rax),%eax
  8004200d6b:	3d 00 02 00 00       	cmp    $0x200,%eax
  8004200d70:	75 17                	jne    8004200d89 <cons_intr+0x7a>
			cons.wpos = 0;
  8004200d72:	48 b8 e0 b6 21 04 80 	movabs $0x800421b6e0,%rax
  8004200d79:	00 00 00 
  8004200d7c:	c7 80 04 02 00 00 00 	movl   $0x0,0x204(%rax)
  8004200d83:	00 00 00 
  8004200d86:	eb 01                	jmp    8004200d89 <cons_intr+0x7a>
{
	int c;

	while ((c = (*proc)()) != -1) {
		if (c == 0)
			continue;
  8004200d88:	90                   	nop
static void
cons_intr(int (*proc)(void))
{
	int c;

	while ((c = (*proc)()) != -1) {
  8004200d89:	48 8b 45 e8          	mov    -0x18(%rbp),%rax
  8004200d8d:	ff d0                	callq  *%rax
  8004200d8f:	89 45 fc             	mov    %eax,-0x4(%rbp)
  8004200d92:	83 7d fc ff          	cmpl   $0xffffffff,-0x4(%rbp)
  8004200d96:	75 85                	jne    8004200d1d <cons_intr+0xe>
			continue;
		cons.buf[cons.wpos++] = c;
		if (cons.wpos == CONSBUFSIZE)
			cons.wpos = 0;
	}
}
  8004200d98:	c9                   	leaveq 
  8004200d99:	c3                   	retq   

0000008004200d9a <cons_getc>:

// return the next input character from the console, or 0 if none waiting
int
cons_getc(void)
{
  8004200d9a:	55                   	push   %rbp
  8004200d9b:	48 89 e5             	mov    %rsp,%rbp
  8004200d9e:	48 83 ec 10          	sub    $0x10,%rsp
	int c;

	// poll for any pending input characters,
	// so that this function works even when interrupts are disabled
	// (e.g., when called from the kernel monitor).
	serial_intr();
  8004200da2:	48 b8 78 04 20 04 80 	movabs $0x8004200478,%rax
  8004200da9:	00 00 00 
  8004200dac:	ff d0                	callq  *%rax
	kbd_intr();
  8004200dae:	48 b8 ed 0c 20 04 80 	movabs $0x8004200ced,%rax
  8004200db5:	00 00 00 
  8004200db8:	ff d0                	callq  *%rax

	// grab the next character from the input buffer.
	if (cons.rpos != cons.wpos) {
  8004200dba:	48 b8 e0 b6 21 04 80 	movabs $0x800421b6e0,%rax
  8004200dc1:	00 00 00 
  8004200dc4:	8b 90 00 02 00 00    	mov    0x200(%rax),%edx
  8004200dca:	48 b8 e0 b6 21 04 80 	movabs $0x800421b6e0,%rax
  8004200dd1:	00 00 00 
  8004200dd4:	8b 80 04 02 00 00    	mov    0x204(%rax),%eax
  8004200dda:	39 c2                	cmp    %eax,%edx
  8004200ddc:	74 69                	je     8004200e47 <cons_getc+0xad>
		c = cons.buf[cons.rpos++];
  8004200dde:	48 b8 e0 b6 21 04 80 	movabs $0x800421b6e0,%rax
  8004200de5:	00 00 00 
  8004200de8:	8b 80 00 02 00 00    	mov    0x200(%rax),%eax
  8004200dee:	48 b9 e0 b6 21 04 80 	movabs $0x800421b6e0,%rcx
  8004200df5:	00 00 00 
  8004200df8:	89 c2                	mov    %eax,%edx
  8004200dfa:	0f b6 14 11          	movzbl (%rcx,%rdx,1),%edx
  8004200dfe:	0f b6 d2             	movzbl %dl,%edx
  8004200e01:	89 55 fc             	mov    %edx,-0x4(%rbp)
  8004200e04:	8d 50 01             	lea    0x1(%rax),%edx
  8004200e07:	48 b8 e0 b6 21 04 80 	movabs $0x800421b6e0,%rax
  8004200e0e:	00 00 00 
  8004200e11:	89 90 00 02 00 00    	mov    %edx,0x200(%rax)
		if (cons.rpos == CONSBUFSIZE)
  8004200e17:	48 b8 e0 b6 21 04 80 	movabs $0x800421b6e0,%rax
  8004200e1e:	00 00 00 
  8004200e21:	8b 80 00 02 00 00    	mov    0x200(%rax),%eax
  8004200e27:	3d 00 02 00 00       	cmp    $0x200,%eax
  8004200e2c:	75 14                	jne    8004200e42 <cons_getc+0xa8>
			cons.rpos = 0;
  8004200e2e:	48 b8 e0 b6 21 04 80 	movabs $0x800421b6e0,%rax
  8004200e35:	00 00 00 
  8004200e38:	c7 80 00 02 00 00 00 	movl   $0x0,0x200(%rax)
  8004200e3f:	00 00 00 
		return c;
  8004200e42:	8b 45 fc             	mov    -0x4(%rbp),%eax
  8004200e45:	eb 05                	jmp    8004200e4c <cons_getc+0xb2>
	}
	return 0;
  8004200e47:	b8 00 00 00 00       	mov    $0x0,%eax
}
  8004200e4c:	c9                   	leaveq 
  8004200e4d:	c3                   	retq   

0000008004200e4e <cons_putc>:

// output a character to the console
static void
cons_putc(int c)
{
  8004200e4e:	55                   	push   %rbp
  8004200e4f:	48 89 e5             	mov    %rsp,%rbp
  8004200e52:	48 83 ec 10          	sub    $0x10,%rsp
  8004200e56:	89 7d fc             	mov    %edi,-0x4(%rbp)
	serial_putc(c);
  8004200e59:	8b 45 fc             	mov    -0x4(%rbp),%eax
  8004200e5c:	89 c7                	mov    %eax,%edi
  8004200e5e:	48 b8 a5 04 20 04 80 	movabs $0x80042004a5,%rax
  8004200e65:	00 00 00 
  8004200e68:	ff d0                	callq  *%rax
	lpt_putc(c);
  8004200e6a:	8b 45 fc             	mov    -0x4(%rbp),%eax
  8004200e6d:	89 c7                	mov    %eax,%edi
  8004200e6f:	48 b8 02 06 20 04 80 	movabs $0x8004200602,%rax
  8004200e76:	00 00 00 
  8004200e79:	ff d0                	callq  *%rax
	cga_putc(c);
  8004200e7b:	8b 45 fc             	mov    -0x4(%rbp),%eax
  8004200e7e:	89 c7                	mov    %eax,%edi
  8004200e80:	48 b8 bf 07 20 04 80 	movabs $0x80042007bf,%rax
  8004200e87:	00 00 00 
  8004200e8a:	ff d0                	callq  *%rax
}
  8004200e8c:	c9                   	leaveq 
  8004200e8d:	c3                   	retq   

0000008004200e8e <cons_init>:

// initialize the console devices
void
cons_init(void)
{
  8004200e8e:	55                   	push   %rbp
  8004200e8f:	48 89 e5             	mov    %rsp,%rbp
	cga_init();
  8004200e92:	48 b8 93 06 20 04 80 	movabs $0x8004200693,%rax
  8004200e99:	00 00 00 
  8004200e9c:	ff d0                	callq  *%rax
	kbd_init();
  8004200e9e:	48 b8 09 0d 20 04 80 	movabs $0x8004200d09,%rax
  8004200ea5:	00 00 00 
  8004200ea8:	ff d0                	callq  *%rax
	serial_init();
  8004200eaa:	48 b8 16 05 20 04 80 	movabs $0x8004200516,%rax
  8004200eb1:	00 00 00 
  8004200eb4:	ff d0                	callq  *%rax

	if (!serial_exists)
  8004200eb6:	48 b8 c0 b6 21 04 80 	movabs $0x800421b6c0,%rax
  8004200ebd:	00 00 00 
  8004200ec0:	0f b6 00             	movzbl (%rax),%eax
  8004200ec3:	83 f0 01             	xor    $0x1,%eax
  8004200ec6:	84 c0                	test   %al,%al
  8004200ec8:	74 1b                	je     8004200ee5 <cons_init+0x57>
		cprintf("Serial port does not exist!\n");
  8004200eca:	48 bf 92 93 20 04 80 	movabs $0x8004209392,%rdi
  8004200ed1:	00 00 00 
  8004200ed4:	b8 00 00 00 00       	mov    $0x0,%eax
  8004200ed9:	48 ba 22 16 20 04 80 	movabs $0x8004201622,%rdx
  8004200ee0:	00 00 00 
  8004200ee3:	ff d2                	callq  *%rdx
}
  8004200ee5:	5d                   	pop    %rbp
  8004200ee6:	c3                   	retq   

0000008004200ee7 <cputchar>:

// `High'-level console I/O.  Used by readline and cprintf.

void
cputchar(int c)
{
  8004200ee7:	55                   	push   %rbp
  8004200ee8:	48 89 e5             	mov    %rsp,%rbp
  8004200eeb:	48 83 ec 10          	sub    $0x10,%rsp
  8004200eef:	89 7d fc             	mov    %edi,-0x4(%rbp)
	cons_putc(c);
  8004200ef2:	8b 45 fc             	mov    -0x4(%rbp),%eax
  8004200ef5:	89 c7                	mov    %eax,%edi
  8004200ef7:	48 b8 4e 0e 20 04 80 	movabs $0x8004200e4e,%rax
  8004200efe:	00 00 00 
  8004200f01:	ff d0                	callq  *%rax
}
  8004200f03:	c9                   	leaveq 
  8004200f04:	c3                   	retq   

0000008004200f05 <getchar>:

int
getchar(void)
{
  8004200f05:	55                   	push   %rbp
  8004200f06:	48 89 e5             	mov    %rsp,%rbp
  8004200f09:	48 83 ec 10          	sub    $0x10,%rsp
	int c;

	while ((c = cons_getc()) == 0)
  8004200f0d:	48 b8 9a 0d 20 04 80 	movabs $0x8004200d9a,%rax
  8004200f14:	00 00 00 
  8004200f17:	ff d0                	callq  *%rax
  8004200f19:	89 45 fc             	mov    %eax,-0x4(%rbp)
  8004200f1c:	83 7d fc 00          	cmpl   $0x0,-0x4(%rbp)
  8004200f20:	74 eb                	je     8004200f0d <getchar+0x8>
		/* do nothing */;
	return c;
  8004200f22:	8b 45 fc             	mov    -0x4(%rbp),%eax
}
  8004200f25:	c9                   	leaveq 
  8004200f26:	c3                   	retq   

0000008004200f27 <iscons>:

int
iscons(int fdnum)
{
  8004200f27:	55                   	push   %rbp
  8004200f28:	48 89 e5             	mov    %rsp,%rbp
  8004200f2b:	48 83 ec 08          	sub    $0x8,%rsp
  8004200f2f:	89 7d fc             	mov    %edi,-0x4(%rbp)
	// used by readline
	return 1;
  8004200f32:	b8 01 00 00 00       	mov    $0x1,%eax
}
  8004200f37:	c9                   	leaveq 
  8004200f38:	c3                   	retq   
  8004200f39:	00 00                	add    %al,(%rax)
	...

0000008004200f3c <mon_help>:

/***** Implementations of basic kernel monitor commands *****/

int
mon_help(int argc, char **argv, struct Trapframe *tf)
{
  8004200f3c:	55                   	push   %rbp
  8004200f3d:	48 89 e5             	mov    %rsp,%rbp
  8004200f40:	48 83 ec 30          	sub    $0x30,%rsp
  8004200f44:	89 7d ec             	mov    %edi,-0x14(%rbp)
  8004200f47:	48 89 75 e0          	mov    %rsi,-0x20(%rbp)
  8004200f4b:	48 89 55 d8          	mov    %rdx,-0x28(%rbp)
	int i;

	for (i = 0; i < NCOMMANDS; i++)
  8004200f4f:	c7 45 fc 00 00 00 00 	movl   $0x0,-0x4(%rbp)
  8004200f56:	eb 6c                	jmp    8004200fc4 <mon_help+0x88>
		cprintf("%s - %s\n", commands[i].name, commands[i].desc);
  8004200f58:	48 b9 80 b5 21 04 80 	movabs $0x800421b580,%rcx
  8004200f5f:	00 00 00 
  8004200f62:	8b 45 fc             	mov    -0x4(%rbp),%eax
  8004200f65:	48 63 d0             	movslq %eax,%rdx
  8004200f68:	48 89 d0             	mov    %rdx,%rax
  8004200f6b:	48 01 c0             	add    %rax,%rax
  8004200f6e:	48 01 d0             	add    %rdx,%rax
  8004200f71:	48 c1 e0 03          	shl    $0x3,%rax
  8004200f75:	48 01 c8             	add    %rcx,%rax
  8004200f78:	48 8b 48 08          	mov    0x8(%rax),%rcx
  8004200f7c:	48 be 80 b5 21 04 80 	movabs $0x800421b580,%rsi
  8004200f83:	00 00 00 
  8004200f86:	8b 45 fc             	mov    -0x4(%rbp),%eax
  8004200f89:	48 63 d0             	movslq %eax,%rdx
  8004200f8c:	48 89 d0             	mov    %rdx,%rax
  8004200f8f:	48 01 c0             	add    %rax,%rax
  8004200f92:	48 01 d0             	add    %rdx,%rax
  8004200f95:	48 c1 e0 03          	shl    $0x3,%rax
  8004200f99:	48 01 f0             	add    %rsi,%rax
  8004200f9c:	48 8b 00             	mov    (%rax),%rax
  8004200f9f:	48 89 ca             	mov    %rcx,%rdx
  8004200fa2:	48 89 c6             	mov    %rax,%rsi
  8004200fa5:	48 bf 41 94 20 04 80 	movabs $0x8004209441,%rdi
  8004200fac:	00 00 00 
  8004200faf:	b8 00 00 00 00       	mov    $0x0,%eax
  8004200fb4:	48 b9 22 16 20 04 80 	movabs $0x8004201622,%rcx
  8004200fbb:	00 00 00 
  8004200fbe:	ff d1                	callq  *%rcx
int
mon_help(int argc, char **argv, struct Trapframe *tf)
{
	int i;

	for (i = 0; i < NCOMMANDS; i++)
  8004200fc0:	83 45 fc 01          	addl   $0x1,-0x4(%rbp)
  8004200fc4:	8b 45 fc             	mov    -0x4(%rbp),%eax
  8004200fc7:	83 f8 02             	cmp    $0x2,%eax
  8004200fca:	76 8c                	jbe    8004200f58 <mon_help+0x1c>
		cprintf("%s - %s\n", commands[i].name, commands[i].desc);
	return 0;
  8004200fcc:	b8 00 00 00 00       	mov    $0x0,%eax
}
  8004200fd1:	c9                   	leaveq 
  8004200fd2:	c3                   	retq   

0000008004200fd3 <mon_kerninfo>:

int
mon_kerninfo(int argc, char **argv, struct Trapframe *tf)
{
  8004200fd3:	55                   	push   %rbp
  8004200fd4:	48 89 e5             	mov    %rsp,%rbp
  8004200fd7:	48 83 ec 30          	sub    $0x30,%rsp
  8004200fdb:	89 7d ec             	mov    %edi,-0x14(%rbp)
  8004200fde:	48 89 75 e0          	mov    %rsi,-0x20(%rbp)
  8004200fe2:	48 89 55 d8          	mov    %rdx,-0x28(%rbp)
	extern char _start[], entry[], etext[], edata[], end[];

	cprintf("Special kernel symbols:\n");
  8004200fe6:	48 bf 4a 94 20 04 80 	movabs $0x800420944a,%rdi
  8004200fed:	00 00 00 
  8004200ff0:	b8 00 00 00 00       	mov    $0x0,%eax
  8004200ff5:	48 ba 22 16 20 04 80 	movabs $0x8004201622,%rdx
  8004200ffc:	00 00 00 
  8004200fff:	ff d2                	callq  *%rdx
	cprintf("  _start                  %08x (phys)\n", _start);
  8004201001:	48 be 0c 00 20 00 00 	movabs $0x20000c,%rsi
  8004201008:	00 00 00 
  800420100b:	48 bf 68 94 20 04 80 	movabs $0x8004209468,%rdi
  8004201012:	00 00 00 
  8004201015:	b8 00 00 00 00       	mov    $0x0,%eax
  800420101a:	48 ba 22 16 20 04 80 	movabs $0x8004201622,%rdx
  8004201021:	00 00 00 
  8004201024:	ff d2                	callq  *%rdx
	cprintf("  entry  %08x (virt)  %08x (phys)\n", entry, entry - KERNBASE);
  8004201026:	48 ba 0c 00 20 00 00 	movabs $0x20000c,%rdx
  800420102d:	00 00 00 
  8004201030:	48 be 0c 00 20 04 80 	movabs $0x800420000c,%rsi
  8004201037:	00 00 00 
  800420103a:	48 bf 90 94 20 04 80 	movabs $0x8004209490,%rdi
  8004201041:	00 00 00 
  8004201044:	b8 00 00 00 00       	mov    $0x0,%eax
  8004201049:	48 b9 22 16 20 04 80 	movabs $0x8004201622,%rcx
  8004201050:	00 00 00 
  8004201053:	ff d1                	callq  *%rcx
	cprintf("  etext  %08x (virt)  %08x (phys)\n", etext, etext - KERNBASE);
  8004201055:	48 ba f0 92 20 00 00 	movabs $0x2092f0,%rdx
  800420105c:	00 00 00 
  800420105f:	48 be f0 92 20 04 80 	movabs $0x80042092f0,%rsi
  8004201066:	00 00 00 
  8004201069:	48 bf b8 94 20 04 80 	movabs $0x80042094b8,%rdi
  8004201070:	00 00 00 
  8004201073:	b8 00 00 00 00       	mov    $0x0,%eax
  8004201078:	48 b9 22 16 20 04 80 	movabs $0x8004201622,%rcx
  800420107f:	00 00 00 
  8004201082:	ff d1                	callq  *%rcx
	cprintf("  edata  %08x (virt)  %08x (phys)\n", edata, edata - KERNBASE);
  8004201084:	48 ba c0 b6 21 00 00 	movabs $0x21b6c0,%rdx
  800420108b:	00 00 00 
  800420108e:	48 be c0 b6 21 04 80 	movabs $0x800421b6c0,%rsi
  8004201095:	00 00 00 
  8004201098:	48 bf e0 94 20 04 80 	movabs $0x80042094e0,%rdi
  800420109f:	00 00 00 
  80042010a2:	b8 00 00 00 00       	mov    $0x0,%eax
  80042010a7:	48 b9 22 16 20 04 80 	movabs $0x8004201622,%rcx
  80042010ae:	00 00 00 
  80042010b1:	ff d1                	callq  *%rcx
	cprintf("  end    %08x (virt)  %08x (phys)\n", end, end - KERNBASE);
  80042010b3:	48 ba 60 cc 21 00 00 	movabs $0x21cc60,%rdx
  80042010ba:	00 00 00 
  80042010bd:	48 be 60 cc 21 04 80 	movabs $0x800421cc60,%rsi
  80042010c4:	00 00 00 
  80042010c7:	48 bf 08 95 20 04 80 	movabs $0x8004209508,%rdi
  80042010ce:	00 00 00 
  80042010d1:	b8 00 00 00 00       	mov    $0x0,%eax
  80042010d6:	48 b9 22 16 20 04 80 	movabs $0x8004201622,%rcx
  80042010dd:	00 00 00 
  80042010e0:	ff d1                	callq  *%rcx
	cprintf("Kernel executable memory footprint: %dKB\n",
		ROUNDUP(end - entry, 1024) / 1024);
  80042010e2:	48 c7 45 f8 00 04 00 	movq   $0x400,-0x8(%rbp)
  80042010e9:	00 
  80042010ea:	48 b8 0c 00 20 04 80 	movabs $0x800420000c,%rax
  80042010f1:	00 00 00 
  80042010f4:	48 8b 55 f8          	mov    -0x8(%rbp),%rdx
  80042010f8:	48 29 c2             	sub    %rax,%rdx
  80042010fb:	48 b8 60 cc 21 04 80 	movabs $0x800421cc60,%rax
  8004201102:	00 00 00 
  8004201105:	48 83 e8 01          	sub    $0x1,%rax
  8004201109:	48 01 d0             	add    %rdx,%rax
  800420110c:	48 89 45 f0          	mov    %rax,-0x10(%rbp)
  8004201110:	48 8b 45 f0          	mov    -0x10(%rbp),%rax
  8004201114:	ba 00 00 00 00       	mov    $0x0,%edx
  8004201119:	48 f7 75 f8          	divq   -0x8(%rbp)
  800420111d:	48 89 d0             	mov    %rdx,%rax
  8004201120:	48 8b 55 f0          	mov    -0x10(%rbp),%rdx
  8004201124:	48 89 d1             	mov    %rdx,%rcx
  8004201127:	48 29 c1             	sub    %rax,%rcx
  800420112a:	48 89 c8             	mov    %rcx,%rax
	cprintf("  _start                  %08x (phys)\n", _start);
	cprintf("  entry  %08x (virt)  %08x (phys)\n", entry, entry - KERNBASE);
	cprintf("  etext  %08x (virt)  %08x (phys)\n", etext, etext - KERNBASE);
	cprintf("  edata  %08x (virt)  %08x (phys)\n", edata, edata - KERNBASE);
	cprintf("  end    %08x (virt)  %08x (phys)\n", end, end - KERNBASE);
	cprintf("Kernel executable memory footprint: %dKB\n",
  800420112d:	48 8d 90 ff 03 00 00 	lea    0x3ff(%rax),%rdx
  8004201134:	48 85 c0             	test   %rax,%rax
  8004201137:	48 0f 48 c2          	cmovs  %rdx,%rax
  800420113b:	48 c1 f8 0a          	sar    $0xa,%rax
  800420113f:	48 89 c6             	mov    %rax,%rsi
  8004201142:	48 bf 30 95 20 04 80 	movabs $0x8004209530,%rdi
  8004201149:	00 00 00 
  800420114c:	b8 00 00 00 00       	mov    $0x0,%eax
  8004201151:	48 ba 22 16 20 04 80 	movabs $0x8004201622,%rdx
  8004201158:	00 00 00 
  800420115b:	ff d2                	callq  *%rdx
		ROUNDUP(end - entry, 1024) / 1024);
	return 0;
  800420115d:	b8 00 00 00 00       	mov    $0x0,%eax
}
  8004201162:	c9                   	leaveq 
  8004201163:	c3                   	retq   

0000008004201164 <mon_backtrace>:

int
mon_backtrace(int argc, char **argv, struct Trapframe *tf)
{
  8004201164:	55                   	push   %rbp
  8004201165:	48 89 e5             	mov    %rsp,%rbp
  8004201168:	53                   	push   %rbx
  8004201169:	48 81 ec c8 04 00 00 	sub    $0x4c8,%rsp
  8004201170:	89 bd 4c fb ff ff    	mov    %edi,-0x4b4(%rbp)
  8004201176:	48 89 b5 40 fb ff ff 	mov    %rsi,-0x4c0(%rbp)
  800420117d:	48 89 95 38 fb ff ff 	mov    %rdx,-0x4c8(%rbp)

static __inline uint64_t
read_rbp(void)
{
        uint64_t rbp;
        __asm __volatile("movq %%rbp,%0" : "=r" (rbp)::"cc","memory");
  8004201184:	48 89 eb             	mov    %rbp,%rbx
  8004201187:	48 89 5d c8          	mov    %rbx,-0x38(%rbp)
        return rbp;
  800420118b:	48 8b 45 c8          	mov    -0x38(%rbp),%rax
	// Displays the backtrace of the called functions.
	uint64_t* rbp = (uint64_t*)read_rbp();
  800420118f:	48 89 45 e8          	mov    %rax,-0x18(%rbp)
	uint64_t rip;
	read_rip(rip);
  8004201193:	48 8d 1d 00 00 00 00 	lea    0x0(%rip),%rbx        # 800420119a <mon_backtrace+0x36>
  800420119a:	48 89 5d e0          	mov    %rbx,-0x20(%rbp)
	int count = 0;
  800420119e:	c7 45 dc 00 00 00 00 	movl   $0x0,-0x24(%rbp)
	cprintf("Stack backtrace:\n"); 
  80042011a5:	48 bf 5a 95 20 04 80 	movabs $0x800420955a,%rdi
  80042011ac:	00 00 00 
  80042011af:	b8 00 00 00 00       	mov    $0x0,%eax
  80042011b4:	48 ba 22 16 20 04 80 	movabs $0x8004201622,%rdx
  80042011bb:	00 00 00 
  80042011be:	ff d2                	callq  *%rdx
	while (rbp != 0) {//stop when you reach the top of the function call
  80042011c0:	e9 26 01 00 00       	jmpq   80042012eb <mon_backtrace+0x187>
		//print the current values of rbp and rip and then dereference the previous values.
		cprintf("  rbp %#016x  rip %#016x\n", (uint64_t)rbp, rip);
  80042011c5:	48 8b 45 e8          	mov    -0x18(%rbp),%rax
  80042011c9:	48 8b 55 e0          	mov    -0x20(%rbp),%rdx
  80042011cd:	48 89 c6             	mov    %rax,%rsi
  80042011d0:	48 bf 6c 95 20 04 80 	movabs $0x800420956c,%rdi
  80042011d7:	00 00 00 
  80042011da:	b8 00 00 00 00       	mov    $0x0,%eax
  80042011df:	48 b9 22 16 20 04 80 	movabs $0x8004201622,%rcx
  80042011e6:	00 00 00 
  80042011e9:	ff d1                	callq  *%rcx
		struct Ripdebuginfo info;
		if (debuginfo_rip(rip, &info) == 0) {
  80042011eb:	48 8d 95 50 fb ff ff 	lea    -0x4b0(%rbp),%rdx
  80042011f2:	48 8b 45 e0          	mov    -0x20(%rbp),%rax
  80042011f6:	48 89 d6             	mov    %rdx,%rsi
  80042011f9:	48 89 c7             	mov    %rax,%rdi
  80042011fc:	48 b8 6b 1c 20 04 80 	movabs $0x8004201c6b,%rax
  8004201203:	00 00 00 
  8004201206:	ff d0                	callq  *%rax
  8004201208:	85 c0                	test   %eax,%eax
  800420120a:	0f 85 c0 00 00 00    	jne    80042012d0 <mon_backtrace+0x16c>
			//check if the structure is populated.
			cprintf("       %s:%d: %s+%#016x  args:%d", info.rip_file, info.rip_line, info.rip_fn_name, (uint64_t)rip-info.rip_fn_addr, info.rip_fn_narg);
  8004201210:	8b b5 78 fb ff ff    	mov    -0x488(%rbp),%esi
  8004201216:	48 8b 85 70 fb ff ff 	mov    -0x490(%rbp),%rax
  800420121d:	48 8b 55 e0          	mov    -0x20(%rbp),%rdx
  8004201221:	48 89 d7             	mov    %rdx,%rdi
  8004201224:	48 29 c7             	sub    %rax,%rdi
  8004201227:	48 8b 8d 60 fb ff ff 	mov    -0x4a0(%rbp),%rcx
  800420122e:	8b 95 58 fb ff ff    	mov    -0x4a8(%rbp),%edx
  8004201234:	48 8b 85 50 fb ff ff 	mov    -0x4b0(%rbp),%rax
  800420123b:	41 89 f1             	mov    %esi,%r9d
  800420123e:	49 89 f8             	mov    %rdi,%r8
  8004201241:	48 89 c6             	mov    %rax,%rsi
  8004201244:	48 bf 88 95 20 04 80 	movabs $0x8004209588,%rdi
  800420124b:	00 00 00 
  800420124e:	b8 00 00 00 00       	mov    $0x0,%eax
  8004201253:	49 ba 22 16 20 04 80 	movabs $0x8004201622,%r10
  800420125a:	00 00 00 
  800420125d:	41 ff d2             	callq  *%r10
			//Print the arguments
			int args = info.rip_fn_narg;
  8004201260:	8b 85 78 fb ff ff    	mov    -0x488(%rbp),%eax
  8004201266:	89 45 d8             	mov    %eax,-0x28(%rbp)
			int argc = 1;
  8004201269:	c7 45 d4 01 00 00 00 	movl   $0x1,-0x2c(%rbp)
			while (args > 0) {
  8004201270:	eb 3d                	jmp    80042012af <mon_backtrace+0x14b>
				cprintf("  %#016x", *(rbp-argc)>>32);
  8004201272:	8b 45 d4             	mov    -0x2c(%rbp),%eax
  8004201275:	48 98                	cltq   
  8004201277:	48 c1 e0 03          	shl    $0x3,%rax
  800420127b:	48 f7 d8             	neg    %rax
  800420127e:	48 03 45 e8          	add    -0x18(%rbp),%rax
  8004201282:	48 8b 00             	mov    (%rax),%rax
  8004201285:	48 c1 e8 20          	shr    $0x20,%rax
  8004201289:	48 89 c6             	mov    %rax,%rsi
  800420128c:	48 bf a9 95 20 04 80 	movabs $0x80042095a9,%rdi
  8004201293:	00 00 00 
  8004201296:	b8 00 00 00 00       	mov    $0x0,%eax
  800420129b:	48 ba 22 16 20 04 80 	movabs $0x8004201622,%rdx
  80042012a2:	00 00 00 
  80042012a5:	ff d2                	callq  *%rdx
				args--;
  80042012a7:	83 6d d8 01          	subl   $0x1,-0x28(%rbp)
				argc++;
  80042012ab:	83 45 d4 01          	addl   $0x1,-0x2c(%rbp)
			//check if the structure is populated.
			cprintf("       %s:%d: %s+%#016x  args:%d", info.rip_file, info.rip_line, info.rip_fn_name, (uint64_t)rip-info.rip_fn_addr, info.rip_fn_narg);
			//Print the arguments
			int args = info.rip_fn_narg;
			int argc = 1;
			while (args > 0) {
  80042012af:	83 7d d8 00          	cmpl   $0x0,-0x28(%rbp)
  80042012b3:	7f bd                	jg     8004201272 <mon_backtrace+0x10e>
				cprintf("  %#016x", *(rbp-argc)>>32);
				args--;
				argc++;
			}
			cprintf("\n");
  80042012b5:	48 bf b2 95 20 04 80 	movabs $0x80042095b2,%rdi
  80042012bc:	00 00 00 
  80042012bf:	b8 00 00 00 00       	mov    $0x0,%eax
  80042012c4:	48 ba 22 16 20 04 80 	movabs $0x8004201622,%rdx
  80042012cb:	00 00 00 
  80042012ce:	ff d2                	callq  *%rdx
		}
		rip = *(rbp + 1);	
  80042012d0:	48 8b 45 e8          	mov    -0x18(%rbp),%rax
  80042012d4:	48 8b 40 08          	mov    0x8(%rax),%rax
  80042012d8:	48 89 45 e0          	mov    %rax,-0x20(%rbp)
		rbp = (uint64_t*)  *rbp;
  80042012dc:	48 8b 45 e8          	mov    -0x18(%rbp),%rax
  80042012e0:	48 8b 00             	mov    (%rax),%rax
  80042012e3:	48 89 45 e8          	mov    %rax,-0x18(%rbp)
		count++;
  80042012e7:	83 45 dc 01          	addl   $0x1,-0x24(%rbp)
	uint64_t* rbp = (uint64_t*)read_rbp();
	uint64_t rip;
	read_rip(rip);
	int count = 0;
	cprintf("Stack backtrace:\n"); 
	while (rbp != 0) {//stop when you reach the top of the function call
  80042012eb:	48 83 7d e8 00       	cmpq   $0x0,-0x18(%rbp)
  80042012f0:	0f 85 cf fe ff ff    	jne    80042011c5 <mon_backtrace+0x61>
		}
		rip = *(rbp + 1);	
		rbp = (uint64_t*)  *rbp;
		count++;
	}
	return count;
  80042012f6:	8b 45 dc             	mov    -0x24(%rbp),%eax
}
  80042012f9:	48 81 c4 c8 04 00 00 	add    $0x4c8,%rsp
  8004201300:	5b                   	pop    %rbx
  8004201301:	5d                   	pop    %rbp
  8004201302:	c3                   	retq   

0000008004201303 <runcmd>:
#define WHITESPACE "\t\r\n "
#define MAXARGS 16

static int
runcmd(char *buf, struct Trapframe *tf)
{
  8004201303:	55                   	push   %rbp
  8004201304:	48 89 e5             	mov    %rsp,%rbp
  8004201307:	48 81 ec a0 00 00 00 	sub    $0xa0,%rsp
  800420130e:	48 89 bd 68 ff ff ff 	mov    %rdi,-0x98(%rbp)
  8004201315:	48 89 b5 60 ff ff ff 	mov    %rsi,-0xa0(%rbp)
	int argc;
	char *argv[MAXARGS];
	int i;

	// Parse the command buffer into whitespace-separated arguments
	argc = 0;
  800420131c:	c7 45 fc 00 00 00 00 	movl   $0x0,-0x4(%rbp)
	argv[argc] = 0;
  8004201323:	8b 45 fc             	mov    -0x4(%rbp),%eax
  8004201326:	48 98                	cltq   
  8004201328:	48 c7 84 c5 70 ff ff 	movq   $0x0,-0x90(%rbp,%rax,8)
  800420132f:	ff 00 00 00 00 
	while (1) {
		// gobble whitespace
		while (*buf && strchr(WHITESPACE, *buf))
  8004201334:	eb 15                	jmp    800420134b <runcmd+0x48>
			return 0;
		}
		argv[argc++] = buf;
		while (*buf && !strchr(WHITESPACE, *buf))
			buf++;
	}
  8004201336:	90                   	nop
	// Parse the command buffer into whitespace-separated arguments
	argc = 0;
	argv[argc] = 0;
	while (1) {
		// gobble whitespace
		while (*buf && strchr(WHITESPACE, *buf))
  8004201337:	eb 12                	jmp    800420134b <runcmd+0x48>
			*buf++ = 0;
  8004201339:	48 8b 85 68 ff ff ff 	mov    -0x98(%rbp),%rax
  8004201340:	c6 00 00             	movb   $0x0,(%rax)
  8004201343:	48 83 85 68 ff ff ff 	addq   $0x1,-0x98(%rbp)
  800420134a:	01 
	// Parse the command buffer into whitespace-separated arguments
	argc = 0;
	argv[argc] = 0;
	while (1) {
		// gobble whitespace
		while (*buf && strchr(WHITESPACE, *buf))
  800420134b:	48 8b 85 68 ff ff ff 	mov    -0x98(%rbp),%rax
  8004201352:	0f b6 00             	movzbl (%rax),%eax
  8004201355:	84 c0                	test   %al,%al
  8004201357:	74 2a                	je     8004201383 <runcmd+0x80>
  8004201359:	48 8b 85 68 ff ff ff 	mov    -0x98(%rbp),%rax
  8004201360:	0f b6 00             	movzbl (%rax),%eax
  8004201363:	0f be c0             	movsbl %al,%eax
  8004201366:	89 c6                	mov    %eax,%esi
  8004201368:	48 bf b4 95 20 04 80 	movabs $0x80042095b4,%rdi
  800420136f:	00 00 00 
  8004201372:	48 b8 e7 2d 20 04 80 	movabs $0x8004202de7,%rax
  8004201379:	00 00 00 
  800420137c:	ff d0                	callq  *%rax
  800420137e:	48 85 c0             	test   %rax,%rax
  8004201381:	75 b6                	jne    8004201339 <runcmd+0x36>
			*buf++ = 0;
		if (*buf == 0)
  8004201383:	48 8b 85 68 ff ff ff 	mov    -0x98(%rbp),%rax
  800420138a:	0f b6 00             	movzbl (%rax),%eax
  800420138d:	84 c0                	test   %al,%al
  800420138f:	0f 84 93 00 00 00    	je     8004201428 <runcmd+0x125>
			break;

		// save and scan past next arg
		if (argc == MAXARGS-1) {
  8004201395:	83 7d fc 0f          	cmpl   $0xf,-0x4(%rbp)
  8004201399:	75 2a                	jne    80042013c5 <runcmd+0xc2>
			cprintf("Too many arguments (max %d)\n", MAXARGS);
  800420139b:	be 10 00 00 00       	mov    $0x10,%esi
  80042013a0:	48 bf b9 95 20 04 80 	movabs $0x80042095b9,%rdi
  80042013a7:	00 00 00 
  80042013aa:	b8 00 00 00 00       	mov    $0x0,%eax
  80042013af:	48 ba 22 16 20 04 80 	movabs $0x8004201622,%rdx
  80042013b6:	00 00 00 
  80042013b9:	ff d2                	callq  *%rdx
			return 0;
  80042013bb:	b8 00 00 00 00       	mov    $0x0,%eax
  80042013c0:	e9 4d 01 00 00       	jmpq   8004201512 <runcmd+0x20f>
		}
		argv[argc++] = buf;
  80042013c5:	8b 45 fc             	mov    -0x4(%rbp),%eax
  80042013c8:	48 98                	cltq   
  80042013ca:	48 8b 95 68 ff ff ff 	mov    -0x98(%rbp),%rdx
  80042013d1:	48 89 94 c5 70 ff ff 	mov    %rdx,-0x90(%rbp,%rax,8)
  80042013d8:	ff 
  80042013d9:	83 45 fc 01          	addl   $0x1,-0x4(%rbp)
		while (*buf && !strchr(WHITESPACE, *buf))
  80042013dd:	eb 08                	jmp    80042013e7 <runcmd+0xe4>
			buf++;
  80042013df:	48 83 85 68 ff ff ff 	addq   $0x1,-0x98(%rbp)
  80042013e6:	01 
		if (argc == MAXARGS-1) {
			cprintf("Too many arguments (max %d)\n", MAXARGS);
			return 0;
		}
		argv[argc++] = buf;
		while (*buf && !strchr(WHITESPACE, *buf))
  80042013e7:	48 8b 85 68 ff ff ff 	mov    -0x98(%rbp),%rax
  80042013ee:	0f b6 00             	movzbl (%rax),%eax
  80042013f1:	84 c0                	test   %al,%al
  80042013f3:	0f 84 3d ff ff ff    	je     8004201336 <runcmd+0x33>
  80042013f9:	48 8b 85 68 ff ff ff 	mov    -0x98(%rbp),%rax
  8004201400:	0f b6 00             	movzbl (%rax),%eax
  8004201403:	0f be c0             	movsbl %al,%eax
  8004201406:	89 c6                	mov    %eax,%esi
  8004201408:	48 bf b4 95 20 04 80 	movabs $0x80042095b4,%rdi
  800420140f:	00 00 00 
  8004201412:	48 b8 e7 2d 20 04 80 	movabs $0x8004202de7,%rax
  8004201419:	00 00 00 
  800420141c:	ff d0                	callq  *%rax
  800420141e:	48 85 c0             	test   %rax,%rax
  8004201421:	74 bc                	je     80042013df <runcmd+0xdc>
			buf++;
	}
  8004201423:	e9 0e ff ff ff       	jmpq   8004201336 <runcmd+0x33>
	while (1) {
		// gobble whitespace
		while (*buf && strchr(WHITESPACE, *buf))
			*buf++ = 0;
		if (*buf == 0)
			break;
  8004201428:	90                   	nop
		}
		argv[argc++] = buf;
		while (*buf && !strchr(WHITESPACE, *buf))
			buf++;
	}
	argv[argc] = 0;
  8004201429:	8b 45 fc             	mov    -0x4(%rbp),%eax
  800420142c:	48 98                	cltq   
  800420142e:	48 c7 84 c5 70 ff ff 	movq   $0x0,-0x90(%rbp,%rax,8)
  8004201435:	ff 00 00 00 00 

	// Lookup and invoke the command
	if (argc == 0)
  800420143a:	83 7d fc 00          	cmpl   $0x0,-0x4(%rbp)
  800420143e:	75 0a                	jne    800420144a <runcmd+0x147>
		return 0;
  8004201440:	b8 00 00 00 00       	mov    $0x0,%eax
  8004201445:	e9 c8 00 00 00       	jmpq   8004201512 <runcmd+0x20f>
	for (i = 0; i < NCOMMANDS; i++) {
  800420144a:	c7 45 f8 00 00 00 00 	movl   $0x0,-0x8(%rbp)
  8004201451:	e9 86 00 00 00       	jmpq   80042014dc <runcmd+0x1d9>
		if (strcmp(argv[0], commands[i].name) == 0)
  8004201456:	48 b9 80 b5 21 04 80 	movabs $0x800421b580,%rcx
  800420145d:	00 00 00 
  8004201460:	8b 45 f8             	mov    -0x8(%rbp),%eax
  8004201463:	48 63 d0             	movslq %eax,%rdx
  8004201466:	48 89 d0             	mov    %rdx,%rax
  8004201469:	48 01 c0             	add    %rax,%rax
  800420146c:	48 01 d0             	add    %rdx,%rax
  800420146f:	48 c1 e0 03          	shl    $0x3,%rax
  8004201473:	48 01 c8             	add    %rcx,%rax
  8004201476:	48 8b 10             	mov    (%rax),%rdx
  8004201479:	48 8b 85 70 ff ff ff 	mov    -0x90(%rbp),%rax
  8004201480:	48 89 d6             	mov    %rdx,%rsi
  8004201483:	48 89 c7             	mov    %rax,%rdi
  8004201486:	48 b8 1f 2d 20 04 80 	movabs $0x8004202d1f,%rax
  800420148d:	00 00 00 
  8004201490:	ff d0                	callq  *%rax
  8004201492:	85 c0                	test   %eax,%eax
  8004201494:	75 42                	jne    80042014d8 <runcmd+0x1d5>
			return commands[i].func(argc, argv, tf);
  8004201496:	48 b9 80 b5 21 04 80 	movabs $0x800421b580,%rcx
  800420149d:	00 00 00 
  80042014a0:	8b 45 f8             	mov    -0x8(%rbp),%eax
  80042014a3:	48 63 d0             	movslq %eax,%rdx
  80042014a6:	48 89 d0             	mov    %rdx,%rax
  80042014a9:	48 01 c0             	add    %rax,%rax
  80042014ac:	48 01 d0             	add    %rdx,%rax
  80042014af:	48 c1 e0 03          	shl    $0x3,%rax
  80042014b3:	48 01 c8             	add    %rcx,%rax
  80042014b6:	48 83 c0 10          	add    $0x10,%rax
  80042014ba:	4c 8b 00             	mov    (%rax),%r8
  80042014bd:	48 8b 95 60 ff ff ff 	mov    -0xa0(%rbp),%rdx
  80042014c4:	48 8d 8d 70 ff ff ff 	lea    -0x90(%rbp),%rcx
  80042014cb:	8b 45 fc             	mov    -0x4(%rbp),%eax
  80042014ce:	48 89 ce             	mov    %rcx,%rsi
  80042014d1:	89 c7                	mov    %eax,%edi
  80042014d3:	41 ff d0             	callq  *%r8
  80042014d6:	eb 3a                	jmp    8004201512 <runcmd+0x20f>
	argv[argc] = 0;

	// Lookup and invoke the command
	if (argc == 0)
		return 0;
	for (i = 0; i < NCOMMANDS; i++) {
  80042014d8:	83 45 f8 01          	addl   $0x1,-0x8(%rbp)
  80042014dc:	8b 45 f8             	mov    -0x8(%rbp),%eax
  80042014df:	83 f8 02             	cmp    $0x2,%eax
  80042014e2:	0f 86 6e ff ff ff    	jbe    8004201456 <runcmd+0x153>
		if (strcmp(argv[0], commands[i].name) == 0)
			return commands[i].func(argc, argv, tf);
	}
	cprintf("Unknown command '%s'\n", argv[0]);
  80042014e8:	48 8b 85 70 ff ff ff 	mov    -0x90(%rbp),%rax
  80042014ef:	48 89 c6             	mov    %rax,%rsi
  80042014f2:	48 bf d6 95 20 04 80 	movabs $0x80042095d6,%rdi
  80042014f9:	00 00 00 
  80042014fc:	b8 00 00 00 00       	mov    $0x0,%eax
  8004201501:	48 ba 22 16 20 04 80 	movabs $0x8004201622,%rdx
  8004201508:	00 00 00 
  800420150b:	ff d2                	callq  *%rdx
	return 0;
  800420150d:	b8 00 00 00 00       	mov    $0x0,%eax
}
  8004201512:	c9                   	leaveq 
  8004201513:	c3                   	retq   

0000008004201514 <monitor>:

void
monitor(struct Trapframe *tf)
{
  8004201514:	55                   	push   %rbp
  8004201515:	48 89 e5             	mov    %rsp,%rbp
  8004201518:	48 83 ec 20          	sub    $0x20,%rsp
  800420151c:	48 89 7d e8          	mov    %rdi,-0x18(%rbp)
	char *buf;

	cprintf("Welcome to the JOS kernel monitor!\n");
  8004201520:	48 bf f0 95 20 04 80 	movabs $0x80042095f0,%rdi
  8004201527:	00 00 00 
  800420152a:	b8 00 00 00 00       	mov    $0x0,%eax
  800420152f:	48 ba 22 16 20 04 80 	movabs $0x8004201622,%rdx
  8004201536:	00 00 00 
  8004201539:	ff d2                	callq  *%rdx
	cprintf("Type 'help' for a list of commands.\n");
  800420153b:	48 bf 18 96 20 04 80 	movabs $0x8004209618,%rdi
  8004201542:	00 00 00 
  8004201545:	b8 00 00 00 00       	mov    $0x0,%eax
  800420154a:	48 ba 22 16 20 04 80 	movabs $0x8004201622,%rdx
  8004201551:	00 00 00 
  8004201554:	ff d2                	callq  *%rdx
  8004201556:	eb 01                	jmp    8004201559 <monitor+0x45>
	while (1) {
		buf = readline("K> ");
		if (buf != NULL)
			if (runcmd(buf, tf) < 0)
				break;
	}
  8004201558:	90                   	nop
	cprintf("Welcome to the JOS kernel monitor!\n");
	cprintf("Type 'help' for a list of commands.\n");


	while (1) {
		buf = readline("K> ");
  8004201559:	48 bf 3d 96 20 04 80 	movabs $0x800420963d,%rdi
  8004201560:	00 00 00 
  8004201563:	48 b8 04 2a 20 04 80 	movabs $0x8004202a04,%rax
  800420156a:	00 00 00 
  800420156d:	ff d0                	callq  *%rax
  800420156f:	48 89 45 f8          	mov    %rax,-0x8(%rbp)
		if (buf != NULL)
  8004201573:	48 83 7d f8 00       	cmpq   $0x0,-0x8(%rbp)
  8004201578:	74 de                	je     8004201558 <monitor+0x44>
			if (runcmd(buf, tf) < 0)
  800420157a:	48 8b 55 e8          	mov    -0x18(%rbp),%rdx
  800420157e:	48 8b 45 f8          	mov    -0x8(%rbp),%rax
  8004201582:	48 89 d6             	mov    %rdx,%rsi
  8004201585:	48 89 c7             	mov    %rax,%rdi
  8004201588:	48 b8 03 13 20 04 80 	movabs $0x8004201303,%rax
  800420158f:	00 00 00 
  8004201592:	ff d0                	callq  *%rax
  8004201594:	85 c0                	test   %eax,%eax
  8004201596:	79 c0                	jns    8004201558 <monitor+0x44>
				break;
  8004201598:	90                   	nop
	}
}
  8004201599:	c9                   	leaveq 
  800420159a:	c3                   	retq   
	...

000000800420159c <putch>:
#include <inc/stdarg.h>


static void
putch(int ch, int *cnt)
{
  800420159c:	55                   	push   %rbp
  800420159d:	48 89 e5             	mov    %rsp,%rbp
  80042015a0:	48 83 ec 10          	sub    $0x10,%rsp
  80042015a4:	89 7d fc             	mov    %edi,-0x4(%rbp)
  80042015a7:	48 89 75 f0          	mov    %rsi,-0x10(%rbp)
	cputchar(ch);
  80042015ab:	8b 45 fc             	mov    -0x4(%rbp),%eax
  80042015ae:	89 c7                	mov    %eax,%edi
  80042015b0:	48 b8 e7 0e 20 04 80 	movabs $0x8004200ee7,%rax
  80042015b7:	00 00 00 
  80042015ba:	ff d0                	callq  *%rax
	*cnt++;
  80042015bc:	48 83 45 f0 04       	addq   $0x4,-0x10(%rbp)
}
  80042015c1:	c9                   	leaveq 
  80042015c2:	c3                   	retq   

00000080042015c3 <vcprintf>:

int
vcprintf(const char *fmt, va_list ap)
{
  80042015c3:	55                   	push   %rbp
  80042015c4:	48 89 e5             	mov    %rsp,%rbp
  80042015c7:	48 83 ec 30          	sub    $0x30,%rsp
  80042015cb:	48 89 7d d8          	mov    %rdi,-0x28(%rbp)
  80042015cf:	48 89 75 d0          	mov    %rsi,-0x30(%rbp)
	int cnt = 0;
  80042015d3:	c7 45 fc 00 00 00 00 	movl   $0x0,-0x4(%rbp)
    va_list aq;
    va_copy(aq,ap);
  80042015da:	48 8d 45 e0          	lea    -0x20(%rbp),%rax
  80042015de:	48 8b 55 d0          	mov    -0x30(%rbp),%rdx
  80042015e2:	48 8b 0a             	mov    (%rdx),%rcx
  80042015e5:	48 89 08             	mov    %rcx,(%rax)
  80042015e8:	48 8b 4a 08          	mov    0x8(%rdx),%rcx
  80042015ec:	48 89 48 08          	mov    %rcx,0x8(%rax)
  80042015f0:	48 8b 52 10          	mov    0x10(%rdx),%rdx
  80042015f4:	48 89 50 10          	mov    %rdx,0x10(%rax)
	vprintfmt((void*)putch, &cnt, fmt, aq);
  80042015f8:	48 8d 4d e0          	lea    -0x20(%rbp),%rcx
  80042015fc:	48 8b 55 d8          	mov    -0x28(%rbp),%rdx
  8004201600:	48 8d 45 fc          	lea    -0x4(%rbp),%rax
  8004201604:	48 89 c6             	mov    %rax,%rsi
  8004201607:	48 bf 9c 15 20 04 80 	movabs $0x800420159c,%rdi
  800420160e:	00 00 00 
  8004201611:	48 b8 64 22 20 04 80 	movabs $0x8004202264,%rax
  8004201618:	00 00 00 
  800420161b:	ff d0                	callq  *%rax
    va_end(aq);
	return cnt;
  800420161d:	8b 45 fc             	mov    -0x4(%rbp),%eax

}
  8004201620:	c9                   	leaveq 
  8004201621:	c3                   	retq   

0000008004201622 <cprintf>:

int
cprintf(const char *fmt, ...)
{
  8004201622:	55                   	push   %rbp
  8004201623:	48 89 e5             	mov    %rsp,%rbp
  8004201626:	48 81 ec 00 01 00 00 	sub    $0x100,%rsp
  800420162d:	48 89 b5 58 ff ff ff 	mov    %rsi,-0xa8(%rbp)
  8004201634:	48 89 95 60 ff ff ff 	mov    %rdx,-0xa0(%rbp)
  800420163b:	48 89 8d 68 ff ff ff 	mov    %rcx,-0x98(%rbp)
  8004201642:	4c 89 85 70 ff ff ff 	mov    %r8,-0x90(%rbp)
  8004201649:	4c 89 8d 78 ff ff ff 	mov    %r9,-0x88(%rbp)
  8004201650:	84 c0                	test   %al,%al
  8004201652:	74 20                	je     8004201674 <cprintf+0x52>
  8004201654:	0f 29 45 80          	movaps %xmm0,-0x80(%rbp)
  8004201658:	0f 29 4d 90          	movaps %xmm1,-0x70(%rbp)
  800420165c:	0f 29 55 a0          	movaps %xmm2,-0x60(%rbp)
  8004201660:	0f 29 5d b0          	movaps %xmm3,-0x50(%rbp)
  8004201664:	0f 29 65 c0          	movaps %xmm4,-0x40(%rbp)
  8004201668:	0f 29 6d d0          	movaps %xmm5,-0x30(%rbp)
  800420166c:	0f 29 75 e0          	movaps %xmm6,-0x20(%rbp)
  8004201670:	0f 29 7d f0          	movaps %xmm7,-0x10(%rbp)
  8004201674:	48 89 bd 08 ff ff ff 	mov    %rdi,-0xf8(%rbp)
	va_list ap;
	int cnt;
	va_start(ap, fmt);
  800420167b:	c7 85 30 ff ff ff 08 	movl   $0x8,-0xd0(%rbp)
  8004201682:	00 00 00 
  8004201685:	c7 85 34 ff ff ff 30 	movl   $0x30,-0xcc(%rbp)
  800420168c:	00 00 00 
  800420168f:	48 8d 45 10          	lea    0x10(%rbp),%rax
  8004201693:	48 89 85 38 ff ff ff 	mov    %rax,-0xc8(%rbp)
  800420169a:	48 8d 85 50 ff ff ff 	lea    -0xb0(%rbp),%rax
  80042016a1:	48 89 85 40 ff ff ff 	mov    %rax,-0xc0(%rbp)
    va_list aq;
    va_copy(aq,ap);
  80042016a8:	48 8d 85 18 ff ff ff 	lea    -0xe8(%rbp),%rax
  80042016af:	48 8d 95 30 ff ff ff 	lea    -0xd0(%rbp),%rdx
  80042016b6:	48 8b 0a             	mov    (%rdx),%rcx
  80042016b9:	48 89 08             	mov    %rcx,(%rax)
  80042016bc:	48 8b 4a 08          	mov    0x8(%rdx),%rcx
  80042016c0:	48 89 48 08          	mov    %rcx,0x8(%rax)
  80042016c4:	48 8b 52 10          	mov    0x10(%rdx),%rdx
  80042016c8:	48 89 50 10          	mov    %rdx,0x10(%rax)
	cnt = vcprintf(fmt, aq);
  80042016cc:	48 8d 95 18 ff ff ff 	lea    -0xe8(%rbp),%rdx
  80042016d3:	48 8b 85 08 ff ff ff 	mov    -0xf8(%rbp),%rax
  80042016da:	48 89 d6             	mov    %rdx,%rsi
  80042016dd:	48 89 c7             	mov    %rax,%rdi
  80042016e0:	48 b8 c3 15 20 04 80 	movabs $0x80042015c3,%rax
  80042016e7:	00 00 00 
  80042016ea:	ff d0                	callq  *%rax
  80042016ec:	89 85 4c ff ff ff    	mov    %eax,-0xb4(%rbp)
	va_end(aq);

	return cnt;
  80042016f2:	8b 85 4c ff ff ff    	mov    -0xb4(%rbp),%eax
}
  80042016f8:	c9                   	leaveq 
  80042016f9:	c3                   	retq   
	...

00000080042016fc <list_func_die>:

#endif


int list_func_die(struct Ripdebuginfo *info, Dwarf_Die *die, uint64_t addr)
{
  80042016fc:	55                   	push   %rbp
  80042016fd:	48 89 e5             	mov    %rsp,%rbp
  8004201700:	48 81 ec b0 61 00 00 	sub    $0x61b0,%rsp
  8004201707:	48 89 bd a8 9e ff ff 	mov    %rdi,-0x6158(%rbp)
  800420170e:	48 89 b5 a0 9e ff ff 	mov    %rsi,-0x6160(%rbp)
  8004201715:	48 89 95 98 9e ff ff 	mov    %rdx,-0x6168(%rbp)
	_Dwarf_Line ln;
	Dwarf_Attribute *low;
	Dwarf_Attribute *high;
	Dwarf_CU *cu = die->cu_header;
  800420171c:	48 8b 85 a0 9e ff ff 	mov    -0x6160(%rbp),%rax
  8004201723:	48 8b 80 60 03 00 00 	mov    0x360(%rax),%rax
  800420172a:	48 89 45 e8          	mov    %rax,-0x18(%rbp)
	Dwarf_Die *cudie = die->cu_die; 
  800420172e:	48 8b 85 a0 9e ff ff 	mov    -0x6160(%rbp),%rax
  8004201735:	48 8b 80 68 03 00 00 	mov    0x368(%rax),%rax
  800420173c:	48 89 45 e0          	mov    %rax,-0x20(%rbp)
	Dwarf_Die ret, sib=*die; 
  8004201740:	48 8b 95 a0 9e ff ff 	mov    -0x6160(%rbp),%rdx
  8004201747:	48 8d 85 b0 9e ff ff 	lea    -0x6150(%rbp),%rax
  800420174e:	48 89 d1             	mov    %rdx,%rcx
  8004201751:	ba 70 30 00 00       	mov    $0x3070,%edx
  8004201756:	48 89 ce             	mov    %rcx,%rsi
  8004201759:	48 89 c7             	mov    %rax,%rdi
  800420175c:	48 b8 fd 2f 20 04 80 	movabs $0x8004202ffd,%rax
  8004201763:	00 00 00 
  8004201766:	ff d0                	callq  *%rax
	Dwarf_Attribute *attr;
	uint64_t offset;
	uint64_t ret_val=8;
  8004201768:	48 c7 45 f8 08 00 00 	movq   $0x8,-0x8(%rbp)
  800420176f:	00 
	
	if(die->die_tag != DW_TAG_subprogram)
  8004201770:	48 8b 85 a0 9e ff ff 	mov    -0x6160(%rbp),%rax
  8004201777:	48 8b 40 18          	mov    0x18(%rax),%rax
  800420177b:	48 83 f8 2e          	cmp    $0x2e,%rax
  800420177f:	74 0a                	je     800420178b <list_func_die+0x8f>
		return 0;
  8004201781:	b8 00 00 00 00       	mov    $0x0,%eax
  8004201786:	e9 de 04 00 00       	jmpq   8004201c69 <list_func_die+0x56d>

	memset(&ln, 0, sizeof(_Dwarf_Line));
  800420178b:	48 8d 45 90          	lea    -0x70(%rbp),%rax
  800420178f:	ba 38 00 00 00       	mov    $0x38,%edx
  8004201794:	be 00 00 00 00       	mov    $0x0,%esi
  8004201799:	48 89 c7             	mov    %rax,%rdi
  800420179c:	48 b8 5b 2e 20 04 80 	movabs $0x8004202e5b,%rax
  80042017a3:	00 00 00 
  80042017a6:	ff d0                	callq  *%rax

	low  = _dwarf_attr_find(die, DW_AT_low_pc);
  80042017a8:	48 8b 85 a0 9e ff ff 	mov    -0x6160(%rbp),%rax
  80042017af:	be 11 00 00 00       	mov    $0x11,%esi
  80042017b4:	48 89 c7             	mov    %rax,%rdi
  80042017b7:	48 b8 cc 4d 20 04 80 	movabs $0x8004204dcc,%rax
  80042017be:	00 00 00 
  80042017c1:	ff d0                	callq  *%rax
  80042017c3:	48 89 45 d8          	mov    %rax,-0x28(%rbp)
	high = _dwarf_attr_find(die, DW_AT_high_pc);
  80042017c7:	48 8b 85 a0 9e ff ff 	mov    -0x6160(%rbp),%rax
  80042017ce:	be 12 00 00 00       	mov    $0x12,%esi
  80042017d3:	48 89 c7             	mov    %rax,%rdi
  80042017d6:	48 b8 cc 4d 20 04 80 	movabs $0x8004204dcc,%rax
  80042017dd:	00 00 00 
  80042017e0:	ff d0                	callq  *%rax
  80042017e2:	48 89 45 d0          	mov    %rax,-0x30(%rbp)

	if((low && (low->u[0].u64 < addr)) && (high && (high->u[0].u64 > addr)))
  80042017e6:	48 83 7d d8 00       	cmpq   $0x0,-0x28(%rbp)
  80042017eb:	0f 84 73 04 00 00    	je     8004201c64 <list_func_die+0x568>
  80042017f1:	48 8b 45 d8          	mov    -0x28(%rbp),%rax
  80042017f5:	48 8b 40 28          	mov    0x28(%rax),%rax
  80042017f9:	48 3b 85 98 9e ff ff 	cmp    -0x6168(%rbp),%rax
  8004201800:	0f 83 5e 04 00 00    	jae    8004201c64 <list_func_die+0x568>
  8004201806:	48 83 7d d0 00       	cmpq   $0x0,-0x30(%rbp)
  800420180b:	0f 84 53 04 00 00    	je     8004201c64 <list_func_die+0x568>
  8004201811:	48 8b 45 d0          	mov    -0x30(%rbp),%rax
  8004201815:	48 8b 40 28          	mov    0x28(%rax),%rax
  8004201819:	48 3b 85 98 9e ff ff 	cmp    -0x6168(%rbp),%rax
  8004201820:	0f 86 3e 04 00 00    	jbe    8004201c64 <list_func_die+0x568>
	{
		info->rip_file = die->cu_die->die_name;
  8004201826:	48 8b 85 a0 9e ff ff 	mov    -0x6160(%rbp),%rax
  800420182d:	48 8b 80 68 03 00 00 	mov    0x368(%rax),%rax
  8004201834:	48 8b 90 50 03 00 00 	mov    0x350(%rax),%rdx
  800420183b:	48 8b 85 a8 9e ff ff 	mov    -0x6158(%rbp),%rax
  8004201842:	48 89 10             	mov    %rdx,(%rax)

		info->rip_fn_name = die->die_name;
  8004201845:	48 8b 85 a0 9e ff ff 	mov    -0x6160(%rbp),%rax
  800420184c:	48 8b 90 50 03 00 00 	mov    0x350(%rax),%rdx
  8004201853:	48 8b 85 a8 9e ff ff 	mov    -0x6158(%rbp),%rax
  800420185a:	48 89 50 10          	mov    %rdx,0x10(%rax)
        info->rip_fn_namelen = strlen(die->die_name);
  800420185e:	48 8b 85 a0 9e ff ff 	mov    -0x6160(%rbp),%rax
  8004201865:	48 8b 80 50 03 00 00 	mov    0x350(%rax),%rax
  800420186c:	48 89 c7             	mov    %rax,%rdi
  800420186f:	48 b8 58 2b 20 04 80 	movabs $0x8004202b58,%rax
  8004201876:	00 00 00 
  8004201879:	ff d0                	callq  *%rax
  800420187b:	48 8b 95 a8 9e ff ff 	mov    -0x6158(%rbp),%rdx
  8004201882:	89 42 18             	mov    %eax,0x18(%rdx)

		info->rip_fn_addr = (uintptr_t)low->u[0].u64;
  8004201885:	48 8b 45 d8          	mov    -0x28(%rbp),%rax
  8004201889:	48 8b 50 28          	mov    0x28(%rax),%rdx
  800420188d:	48 8b 85 a8 9e ff ff 	mov    -0x6158(%rbp),%rax
  8004201894:	48 89 50 20          	mov    %rdx,0x20(%rax)

		assert(die->cu_die);	
  8004201898:	48 8b 85 a0 9e ff ff 	mov    -0x6160(%rbp),%rax
  800420189f:	48 8b 80 68 03 00 00 	mov    0x368(%rax),%rax
  80042018a6:	48 85 c0             	test   %rax,%rax
  80042018a9:	75 35                	jne    80042018e0 <list_func_die+0x1e4>
  80042018ab:	48 b9 98 99 20 04 80 	movabs $0x8004209998,%rcx
  80042018b2:	00 00 00 
  80042018b5:	48 ba a4 99 20 04 80 	movabs $0x80042099a4,%rdx
  80042018bc:	00 00 00 
  80042018bf:	be 69 00 00 00       	mov    $0x69,%esi
  80042018c4:	48 bf b9 99 20 04 80 	movabs $0x80042099b9,%rdi
  80042018cb:	00 00 00 
  80042018ce:	b8 00 00 00 00       	mov    $0x0,%eax
  80042018d3:	49 b8 9b 01 20 04 80 	movabs $0x800420019b,%r8
  80042018da:	00 00 00 
  80042018dd:	41 ff d0             	callq  *%r8
		dwarf_srclines(die->cu_die, &ln, addr, NULL); 
  80042018e0:	48 8b 85 a0 9e ff ff 	mov    -0x6160(%rbp),%rax
  80042018e7:	48 8b 80 68 03 00 00 	mov    0x368(%rax),%rax
  80042018ee:	48 8b 95 98 9e ff ff 	mov    -0x6168(%rbp),%rdx
  80042018f5:	48 8d 75 90          	lea    -0x70(%rbp),%rsi
  80042018f9:	b9 00 00 00 00       	mov    $0x0,%ecx
  80042018fe:	48 89 c7             	mov    %rax,%rdi
  8004201901:	48 b8 6b 84 20 04 80 	movabs $0x800420846b,%rax
  8004201908:	00 00 00 
  800420190b:	ff d0                	callq  *%rax

		info->rip_line = ln.ln_lineno;
  800420190d:	48 8b 45 a8          	mov    -0x58(%rbp),%rax
  8004201911:	89 c2                	mov    %eax,%edx
  8004201913:	48 8b 85 a8 9e ff ff 	mov    -0x6158(%rbp),%rax
  800420191a:	89 50 08             	mov    %edx,0x8(%rax)
		info->rip_fn_narg = 0;
  800420191d:	48 8b 85 a8 9e ff ff 	mov    -0x6158(%rbp),%rax
  8004201924:	c7 40 28 00 00 00 00 	movl   $0x0,0x28(%rax)

		Dwarf_Attribute* attr;

		if(dwarf_child(dbg, cu, &sib, &ret) != DW_DLE_NO_ENTRY)
  800420192b:	48 b8 c8 b5 21 04 80 	movabs $0x800421b5c8,%rax
  8004201932:	00 00 00 
  8004201935:	48 8b 00             	mov    (%rax),%rax
  8004201938:	48 8d 8d 20 cf ff ff 	lea    -0x30e0(%rbp),%rcx
  800420193f:	48 8d 95 b0 9e ff ff 	lea    -0x6150(%rbp),%rdx
  8004201946:	48 8b 75 e8          	mov    -0x18(%rbp),%rsi
  800420194a:	48 89 c7             	mov    %rax,%rdi
  800420194d:	48 b8 a3 50 20 04 80 	movabs $0x80042050a3,%rax
  8004201954:	00 00 00 
  8004201957:	ff d0                	callq  *%rax
  8004201959:	83 f8 04             	cmp    $0x4,%eax
  800420195c:	0f 84 fb 02 00 00    	je     8004201c5d <list_func_die+0x561>
		{
			if(ret.die_tag != DW_TAG_formal_parameter)
  8004201962:	48 8b 85 38 cf ff ff 	mov    -0x30c8(%rbp),%rax
  8004201969:	48 83 f8 05          	cmp    $0x5,%rax
  800420196d:	0f 85 e6 02 00 00    	jne    8004201c59 <list_func_die+0x55d>
				goto last;

			attr = _dwarf_attr_find(&ret, DW_AT_type);
  8004201973:	48 8d 85 20 cf ff ff 	lea    -0x30e0(%rbp),%rax
  800420197a:	be 49 00 00 00       	mov    $0x49,%esi
  800420197f:	48 89 c7             	mov    %rax,%rdi
  8004201982:	48 b8 cc 4d 20 04 80 	movabs $0x8004204dcc,%rax
  8004201989:	00 00 00 
  800420198c:	ff d0                	callq  *%rax
  800420198e:	48 89 45 f0          	mov    %rax,-0x10(%rbp)
	
try_again:
			if(attr != NULL)
  8004201992:	48 83 7d f0 00       	cmpq   $0x0,-0x10(%rbp)
  8004201997:	0f 84 d7 00 00 00    	je     8004201a74 <list_func_die+0x378>
			{
				offset = (uint64_t)cu->cu_offset + attr->u[0].u64;
  800420199d:	48 8b 45 e8          	mov    -0x18(%rbp),%rax
  80042019a1:	48 8b 50 30          	mov    0x30(%rax),%rdx
  80042019a5:	48 8b 45 f0          	mov    -0x10(%rbp),%rax
  80042019a9:	48 8b 40 28          	mov    0x28(%rax),%rax
  80042019ad:	48 01 d0             	add    %rdx,%rax
  80042019b0:	48 89 45 c8          	mov    %rax,-0x38(%rbp)
				dwarf_offdie(dbg, offset, &sib, *cu);
  80042019b4:	48 b8 c8 b5 21 04 80 	movabs $0x800421b5c8,%rax
  80042019bb:	00 00 00 
  80042019be:	48 8b 08             	mov    (%rax),%rcx
  80042019c1:	48 8d 95 b0 9e ff ff 	lea    -0x6150(%rbp),%rdx
  80042019c8:	48 8b 75 c8          	mov    -0x38(%rbp),%rsi
  80042019cc:	48 8b 45 e8          	mov    -0x18(%rbp),%rax
  80042019d0:	48 8b 38             	mov    (%rax),%rdi
  80042019d3:	48 89 3c 24          	mov    %rdi,(%rsp)
  80042019d7:	48 8b 78 08          	mov    0x8(%rax),%rdi
  80042019db:	48 89 7c 24 08       	mov    %rdi,0x8(%rsp)
  80042019e0:	48 8b 78 10          	mov    0x10(%rax),%rdi
  80042019e4:	48 89 7c 24 10       	mov    %rdi,0x10(%rsp)
  80042019e9:	48 8b 78 18          	mov    0x18(%rax),%rdi
  80042019ed:	48 89 7c 24 18       	mov    %rdi,0x18(%rsp)
  80042019f2:	48 8b 78 20          	mov    0x20(%rax),%rdi
  80042019f6:	48 89 7c 24 20       	mov    %rdi,0x20(%rsp)
  80042019fb:	48 8b 78 28          	mov    0x28(%rax),%rdi
  80042019ff:	48 89 7c 24 28       	mov    %rdi,0x28(%rsp)
  8004201a04:	48 8b 40 30          	mov    0x30(%rax),%rax
  8004201a08:	48 89 44 24 30       	mov    %rax,0x30(%rsp)
  8004201a0d:	48 89 cf             	mov    %rcx,%rdi
  8004201a10:	48 b8 c9 4c 20 04 80 	movabs $0x8004204cc9,%rax
  8004201a17:	00 00 00 
  8004201a1a:	ff d0                	callq  *%rax
				attr = _dwarf_attr_find(&sib, DW_AT_byte_size);
  8004201a1c:	48 8d 85 b0 9e ff ff 	lea    -0x6150(%rbp),%rax
  8004201a23:	be 0b 00 00 00       	mov    $0xb,%esi
  8004201a28:	48 89 c7             	mov    %rax,%rdi
  8004201a2b:	48 b8 cc 4d 20 04 80 	movabs $0x8004204dcc,%rax
  8004201a32:	00 00 00 
  8004201a35:	ff d0                	callq  *%rax
  8004201a37:	48 89 45 f0          	mov    %rax,-0x10(%rbp)
		
				if(attr != NULL)
  8004201a3b:	48 83 7d f0 00       	cmpq   $0x0,-0x10(%rbp)
  8004201a40:	74 0e                	je     8004201a50 <list_func_die+0x354>
				{
					ret_val = attr->u[0].u64;
  8004201a42:	48 8b 45 f0          	mov    -0x10(%rbp),%rax
  8004201a46:	48 8b 40 28          	mov    0x28(%rax),%rax
  8004201a4a:	48 89 45 f8          	mov    %rax,-0x8(%rbp)
  8004201a4e:	eb 24                	jmp    8004201a74 <list_func_die+0x378>
				}
				else
				{
					attr = _dwarf_attr_find(&sib, DW_AT_type);
  8004201a50:	48 8d 85 b0 9e ff ff 	lea    -0x6150(%rbp),%rax
  8004201a57:	be 49 00 00 00       	mov    $0x49,%esi
  8004201a5c:	48 89 c7             	mov    %rax,%rdi
  8004201a5f:	48 b8 cc 4d 20 04 80 	movabs $0x8004204dcc,%rax
  8004201a66:	00 00 00 
  8004201a69:	ff d0                	callq  *%rax
  8004201a6b:	48 89 45 f0          	mov    %rax,-0x10(%rbp)
					goto try_again;
  8004201a6f:	e9 1e ff ff ff       	jmpq   8004201992 <list_func_die+0x296>
				}
			}
			info->size_fn_arg[info->rip_fn_narg] = ret_val;
  8004201a74:	48 8b 85 a8 9e ff ff 	mov    -0x6158(%rbp),%rax
  8004201a7b:	8b 48 28             	mov    0x28(%rax),%ecx
  8004201a7e:	48 8b 45 f8          	mov    -0x8(%rbp),%rax
  8004201a82:	89 c2                	mov    %eax,%edx
  8004201a84:	48 8b 85 a8 9e ff ff 	mov    -0x6158(%rbp),%rax
  8004201a8b:	48 63 c9             	movslq %ecx,%rcx
  8004201a8e:	48 83 c1 08          	add    $0x8,%rcx
  8004201a92:	89 54 88 0c          	mov    %edx,0xc(%rax,%rcx,4)
			info->rip_fn_narg++;
  8004201a96:	48 8b 85 a8 9e ff ff 	mov    -0x6158(%rbp),%rax
  8004201a9d:	8b 40 28             	mov    0x28(%rax),%eax
  8004201aa0:	8d 50 01             	lea    0x1(%rax),%edx
  8004201aa3:	48 8b 85 a8 9e ff ff 	mov    -0x6158(%rbp),%rax
  8004201aaa:	89 50 28             	mov    %edx,0x28(%rax)
			sib = ret; 
  8004201aad:	48 8d 85 b0 9e ff ff 	lea    -0x6150(%rbp),%rax
  8004201ab4:	48 8d 8d 20 cf ff ff 	lea    -0x30e0(%rbp),%rcx
  8004201abb:	ba 70 30 00 00       	mov    $0x3070,%edx
  8004201ac0:	48 89 ce             	mov    %rcx,%rsi
  8004201ac3:	48 89 c7             	mov    %rax,%rdi
  8004201ac6:	48 b8 fd 2f 20 04 80 	movabs $0x8004202ffd,%rax
  8004201acd:	00 00 00 
  8004201ad0:	ff d0                	callq  *%rax

			while(dwarf_siblingof(dbg, &sib, &ret, cu) == DW_DLV_OK)	
  8004201ad2:	e9 4a 01 00 00       	jmpq   8004201c21 <list_func_die+0x525>
			{
				if(ret.die_tag != DW_TAG_formal_parameter)
  8004201ad7:	48 8b 85 38 cf ff ff 	mov    -0x30c8(%rbp),%rax
  8004201ade:	48 83 f8 05          	cmp    $0x5,%rax
  8004201ae2:	0f 85 74 01 00 00    	jne    8004201c5c <list_func_die+0x560>
					break;

				attr = _dwarf_attr_find(&ret, DW_AT_type);
  8004201ae8:	48 8d 85 20 cf ff ff 	lea    -0x30e0(%rbp),%rax
  8004201aef:	be 49 00 00 00       	mov    $0x49,%esi
  8004201af4:	48 89 c7             	mov    %rax,%rdi
  8004201af7:	48 b8 cc 4d 20 04 80 	movabs $0x8004204dcc,%rax
  8004201afe:	00 00 00 
  8004201b01:	ff d0                	callq  *%rax
  8004201b03:	48 89 45 f0          	mov    %rax,-0x10(%rbp)
    
   		        if(attr != NULL)
  8004201b07:	48 83 7d f0 00       	cmpq   $0x0,-0x10(%rbp)
  8004201b0c:	0f 84 b1 00 00 00    	je     8004201bc3 <list_func_die+0x4c7>
            	{	   
                	offset = (uint64_t)cu->cu_offset + attr->u[0].u64;
  8004201b12:	48 8b 45 e8          	mov    -0x18(%rbp),%rax
  8004201b16:	48 8b 50 30          	mov    0x30(%rax),%rdx
  8004201b1a:	48 8b 45 f0          	mov    -0x10(%rbp),%rax
  8004201b1e:	48 8b 40 28          	mov    0x28(%rax),%rax
  8004201b22:	48 01 d0             	add    %rdx,%rax
  8004201b25:	48 89 45 c8          	mov    %rax,-0x38(%rbp)
                	dwarf_offdie(dbg, offset, &sib, *cu);
  8004201b29:	48 b8 c8 b5 21 04 80 	movabs $0x800421b5c8,%rax
  8004201b30:	00 00 00 
  8004201b33:	48 8b 08             	mov    (%rax),%rcx
  8004201b36:	48 8d 95 b0 9e ff ff 	lea    -0x6150(%rbp),%rdx
  8004201b3d:	48 8b 75 c8          	mov    -0x38(%rbp),%rsi
  8004201b41:	48 8b 45 e8          	mov    -0x18(%rbp),%rax
  8004201b45:	48 8b 38             	mov    (%rax),%rdi
  8004201b48:	48 89 3c 24          	mov    %rdi,(%rsp)
  8004201b4c:	48 8b 78 08          	mov    0x8(%rax),%rdi
  8004201b50:	48 89 7c 24 08       	mov    %rdi,0x8(%rsp)
  8004201b55:	48 8b 78 10          	mov    0x10(%rax),%rdi
  8004201b59:	48 89 7c 24 10       	mov    %rdi,0x10(%rsp)
  8004201b5e:	48 8b 78 18          	mov    0x18(%rax),%rdi
  8004201b62:	48 89 7c 24 18       	mov    %rdi,0x18(%rsp)
  8004201b67:	48 8b 78 20          	mov    0x20(%rax),%rdi
  8004201b6b:	48 89 7c 24 20       	mov    %rdi,0x20(%rsp)
  8004201b70:	48 8b 78 28          	mov    0x28(%rax),%rdi
  8004201b74:	48 89 7c 24 28       	mov    %rdi,0x28(%rsp)
  8004201b79:	48 8b 40 30          	mov    0x30(%rax),%rax
  8004201b7d:	48 89 44 24 30       	mov    %rax,0x30(%rsp)
  8004201b82:	48 89 cf             	mov    %rcx,%rdi
  8004201b85:	48 b8 c9 4c 20 04 80 	movabs $0x8004204cc9,%rax
  8004201b8c:	00 00 00 
  8004201b8f:	ff d0                	callq  *%rax
                	attr = _dwarf_attr_find(&sib, DW_AT_byte_size);
  8004201b91:	48 8d 85 b0 9e ff ff 	lea    -0x6150(%rbp),%rax
  8004201b98:	be 0b 00 00 00       	mov    $0xb,%esi
  8004201b9d:	48 89 c7             	mov    %rax,%rdi
  8004201ba0:	48 b8 cc 4d 20 04 80 	movabs $0x8004204dcc,%rax
  8004201ba7:	00 00 00 
  8004201baa:	ff d0                	callq  *%rax
  8004201bac:	48 89 45 f0          	mov    %rax,-0x10(%rbp)
        
       		        if(attr != NULL)
  8004201bb0:	48 83 7d f0 00       	cmpq   $0x0,-0x10(%rbp)
  8004201bb5:	74 0c                	je     8004201bc3 <list_func_die+0x4c7>
                	{
                    	ret_val = attr->u[0].u64;
  8004201bb7:	48 8b 45 f0          	mov    -0x10(%rbp),%rax
  8004201bbb:	48 8b 40 28          	mov    0x28(%rax),%rax
  8004201bbf:	48 89 45 f8          	mov    %rax,-0x8(%rbp)
                	}
            	}
	
				info->size_fn_arg[info->rip_fn_narg]=ret_val;// _get_arg_size(ret);
  8004201bc3:	48 8b 85 a8 9e ff ff 	mov    -0x6158(%rbp),%rax
  8004201bca:	8b 48 28             	mov    0x28(%rax),%ecx
  8004201bcd:	48 8b 45 f8          	mov    -0x8(%rbp),%rax
  8004201bd1:	89 c2                	mov    %eax,%edx
  8004201bd3:	48 8b 85 a8 9e ff ff 	mov    -0x6158(%rbp),%rax
  8004201bda:	48 63 c9             	movslq %ecx,%rcx
  8004201bdd:	48 83 c1 08          	add    $0x8,%rcx
  8004201be1:	89 54 88 0c          	mov    %edx,0xc(%rax,%rcx,4)
				info->rip_fn_narg++;
  8004201be5:	48 8b 85 a8 9e ff ff 	mov    -0x6158(%rbp),%rax
  8004201bec:	8b 40 28             	mov    0x28(%rax),%eax
  8004201bef:	8d 50 01             	lea    0x1(%rax),%edx
  8004201bf2:	48 8b 85 a8 9e ff ff 	mov    -0x6158(%rbp),%rax
  8004201bf9:	89 50 28             	mov    %edx,0x28(%rax)
				sib = ret; 
  8004201bfc:	48 8d 85 b0 9e ff ff 	lea    -0x6150(%rbp),%rax
  8004201c03:	48 8d 8d 20 cf ff ff 	lea    -0x30e0(%rbp),%rcx
  8004201c0a:	ba 70 30 00 00       	mov    $0x3070,%edx
  8004201c0f:	48 89 ce             	mov    %rcx,%rsi
  8004201c12:	48 89 c7             	mov    %rax,%rdi
  8004201c15:	48 b8 fd 2f 20 04 80 	movabs $0x8004202ffd,%rax
  8004201c1c:	00 00 00 
  8004201c1f:	ff d0                	callq  *%rax
			}
			info->size_fn_arg[info->rip_fn_narg] = ret_val;
			info->rip_fn_narg++;
			sib = ret; 

			while(dwarf_siblingof(dbg, &sib, &ret, cu) == DW_DLV_OK)	
  8004201c21:	48 b8 c8 b5 21 04 80 	movabs $0x800421b5c8,%rax
  8004201c28:	00 00 00 
  8004201c2b:	48 8b 00             	mov    (%rax),%rax
  8004201c2e:	48 8b 4d e8          	mov    -0x18(%rbp),%rcx
  8004201c32:	48 8d 95 20 cf ff ff 	lea    -0x30e0(%rbp),%rdx
  8004201c39:	48 8d b5 b0 9e ff ff 	lea    -0x6150(%rbp),%rsi
  8004201c40:	48 89 c7             	mov    %rax,%rdi
  8004201c43:	48 b8 5f 4e 20 04 80 	movabs $0x8004204e5f,%rax
  8004201c4a:	00 00 00 
  8004201c4d:	ff d0                	callq  *%rax
  8004201c4f:	85 c0                	test   %eax,%eax
  8004201c51:	0f 84 80 fe ff ff    	je     8004201ad7 <list_func_die+0x3db>
  8004201c57:	eb 04                	jmp    8004201c5d <list_func_die+0x561>
		Dwarf_Attribute* attr;

		if(dwarf_child(dbg, cu, &sib, &ret) != DW_DLE_NO_ENTRY)
		{
			if(ret.die_tag != DW_TAG_formal_parameter)
				goto last;
  8004201c59:	90                   	nop
  8004201c5a:	eb 01                	jmp    8004201c5d <list_func_die+0x561>
			sib = ret; 

			while(dwarf_siblingof(dbg, &sib, &ret, cu) == DW_DLV_OK)	
			{
				if(ret.die_tag != DW_TAG_formal_parameter)
					break;
  8004201c5c:	90                   	nop
				info->rip_fn_narg++;
				sib = ret; 
			}
		}
last:	
		return 1;
  8004201c5d:	b8 01 00 00 00       	mov    $0x1,%eax
  8004201c62:	eb 05                	jmp    8004201c69 <list_func_die+0x56d>
	}

	return 0;
  8004201c64:	b8 00 00 00 00       	mov    $0x0,%eax
}
  8004201c69:	c9                   	leaveq 
  8004201c6a:	c3                   	retq   

0000008004201c6b <debuginfo_rip>:
//	negative if not.  But even if it returns negative it has stored some
//	information into '*info'.
//
int
debuginfo_rip(uintptr_t addr, struct Ripdebuginfo *info)
{
  8004201c6b:	55                   	push   %rbp
  8004201c6c:	48 89 e5             	mov    %rsp,%rbp
  8004201c6f:	48 81 ec c0 91 00 00 	sub    $0x91c0,%rsp
  8004201c76:	48 89 bd 48 6e ff ff 	mov    %rdi,-0x91b8(%rbp)
  8004201c7d:	48 89 b5 40 6e ff ff 	mov    %rsi,-0x91c0(%rbp)
    static struct Env* lastenv = NULL;
    void* elf;    
    Dwarf_Section *sect;
    Dwarf_CU cu;
    Dwarf_Die die, cudie, die2;
    Dwarf_Regtable *rt = NULL;
  8004201c84:	48 c7 45 f8 00 00 00 	movq   $0x0,-0x8(%rbp)
  8004201c8b:	00 
    //Set up initial pc
    uint64_t pc  = (uintptr_t)addr;
  8004201c8c:	48 8b 85 48 6e ff ff 	mov    -0x91b8(%rbp),%rax
  8004201c93:	48 89 45 f0          	mov    %rax,-0x10(%rbp)

    
    // Initialize *info
    info->rip_file = "<unknown>";
  8004201c97:	48 8b 85 40 6e ff ff 	mov    -0x91c0(%rbp),%rax
  8004201c9e:	48 ba c7 99 20 04 80 	movabs $0x80042099c7,%rdx
  8004201ca5:	00 00 00 
  8004201ca8:	48 89 10             	mov    %rdx,(%rax)
    info->rip_line = 0;
  8004201cab:	48 8b 85 40 6e ff ff 	mov    -0x91c0(%rbp),%rax
  8004201cb2:	c7 40 08 00 00 00 00 	movl   $0x0,0x8(%rax)
    info->rip_fn_name = "<unknown>";
  8004201cb9:	48 8b 85 40 6e ff ff 	mov    -0x91c0(%rbp),%rax
  8004201cc0:	48 ba c7 99 20 04 80 	movabs $0x80042099c7,%rdx
  8004201cc7:	00 00 00 
  8004201cca:	48 89 50 10          	mov    %rdx,0x10(%rax)
    info->rip_fn_namelen = 9;
  8004201cce:	48 8b 85 40 6e ff ff 	mov    -0x91c0(%rbp),%rax
  8004201cd5:	c7 40 18 09 00 00 00 	movl   $0x9,0x18(%rax)
    info->rip_fn_addr = addr;
  8004201cdc:	48 8b 85 40 6e ff ff 	mov    -0x91c0(%rbp),%rax
  8004201ce3:	48 8b 95 48 6e ff ff 	mov    -0x91b8(%rbp),%rdx
  8004201cea:	48 89 50 20          	mov    %rdx,0x20(%rax)
    info->rip_fn_narg = 0;
  8004201cee:	48 8b 85 40 6e ff ff 	mov    -0x91c0(%rbp),%rax
  8004201cf5:	c7 40 28 00 00 00 00 	movl   $0x0,0x28(%rax)
    
    // Find the relevant set of stabs
    if (addr >= ULIM) {
  8004201cfc:	48 b8 ff ff bf 03 80 	movabs $0x8003bfffff,%rax
  8004201d03:	00 00 00 
  8004201d06:	48 39 85 48 6e ff ff 	cmp    %rax,-0x91b8(%rbp)
  8004201d0d:	0f 86 95 00 00 00    	jbe    8004201da8 <debuginfo_rip+0x13d>
	    elf = (void *)0x10000 + KERNBASE;
  8004201d13:	c7 45 e8 00 00 01 04 	movl   $0x4010000,-0x18(%rbp)
  8004201d1a:	c7 45 ec 80 00 00 00 	movl   $0x80,-0x14(%rbp)
	    // Can't search for user-level addresses yet!
	    panic("User address");
    }
    
    
    _dwarf_init(dbg, elf);
  8004201d21:	48 b8 c8 b5 21 04 80 	movabs $0x800421b5c8,%rax
  8004201d28:	00 00 00 
  8004201d2b:	48 8b 00             	mov    (%rax),%rax
  8004201d2e:	48 8b 55 e8          	mov    -0x18(%rbp),%rdx
  8004201d32:	48 89 d6             	mov    %rdx,%rsi
  8004201d35:	48 89 c7             	mov    %rax,%rdi
  8004201d38:	48 b8 9e 3c 20 04 80 	movabs $0x8004203c9e,%rax
  8004201d3f:	00 00 00 
  8004201d42:	ff d0                	callq  *%rax

    sect = _dwarf_find_section(".debug_info");	
  8004201d44:	48 bf d1 99 20 04 80 	movabs $0x80042099d1,%rdi
  8004201d4b:	00 00 00 
  8004201d4e:	48 b8 e8 85 20 04 80 	movabs $0x80042085e8,%rax
  8004201d55:	00 00 00 
  8004201d58:	ff d0                	callq  *%rax
  8004201d5a:	48 89 45 e0          	mov    %rax,-0x20(%rbp)
    dbg->dbg_info_offset_elf = (uint64_t)sect->ds_data; 
  8004201d5e:	48 b8 c8 b5 21 04 80 	movabs $0x800421b5c8,%rax
  8004201d65:	00 00 00 
  8004201d68:	48 8b 00             	mov    (%rax),%rax
  8004201d6b:	48 8b 55 e0          	mov    -0x20(%rbp),%rdx
  8004201d6f:	48 8b 52 08          	mov    0x8(%rdx),%rdx
  8004201d73:	48 89 50 08          	mov    %rdx,0x8(%rax)
    dbg->dbg_info_size = sect->ds_size;
  8004201d77:	48 b8 c8 b5 21 04 80 	movabs $0x800421b5c8,%rax
  8004201d7e:	00 00 00 
  8004201d81:	48 8b 00             	mov    (%rax),%rax
  8004201d84:	48 8b 55 e0          	mov    -0x20(%rbp),%rdx
  8004201d88:	48 8b 52 18          	mov    0x18(%rdx),%rdx
  8004201d8c:	48 89 50 10          	mov    %rdx,0x10(%rax)
    
    assert(dbg->dbg_info_size);
  8004201d90:	48 b8 c8 b5 21 04 80 	movabs $0x800421b5c8,%rax
  8004201d97:	00 00 00 
  8004201d9a:	48 8b 00             	mov    (%rax),%rax
  8004201d9d:	48 8b 40 10          	mov    0x10(%rax),%rax
  8004201da1:	48 85 c0             	test   %rax,%rax
  8004201da4:	74 2c                	je     8004201dd2 <debuginfo_rip+0x167>
  8004201da6:	eb 5f                	jmp    8004201e07 <debuginfo_rip+0x19c>
    // Find the relevant set of stabs
    if (addr >= ULIM) {
	    elf = (void *)0x10000 + KERNBASE;
    } else {
	    // Can't search for user-level addresses yet!
	    panic("User address");
  8004201da8:	48 ba dd 99 20 04 80 	movabs $0x80042099dd,%rdx
  8004201daf:	00 00 00 
  8004201db2:	be cd 00 00 00       	mov    $0xcd,%esi
  8004201db7:	48 bf b9 99 20 04 80 	movabs $0x80042099b9,%rdi
  8004201dbe:	00 00 00 
  8004201dc1:	b8 00 00 00 00       	mov    $0x0,%eax
  8004201dc6:	48 b9 9b 01 20 04 80 	movabs $0x800420019b,%rcx
  8004201dcd:	00 00 00 
  8004201dd0:	ff d1                	callq  *%rcx

    sect = _dwarf_find_section(".debug_info");	
    dbg->dbg_info_offset_elf = (uint64_t)sect->ds_data; 
    dbg->dbg_info_size = sect->ds_size;
    
    assert(dbg->dbg_info_size);
  8004201dd2:	48 b9 ea 99 20 04 80 	movabs $0x80042099ea,%rcx
  8004201dd9:	00 00 00 
  8004201ddc:	48 ba a4 99 20 04 80 	movabs $0x80042099a4,%rdx
  8004201de3:	00 00 00 
  8004201de6:	be d7 00 00 00       	mov    $0xd7,%esi
  8004201deb:	48 bf b9 99 20 04 80 	movabs $0x80042099b9,%rdi
  8004201df2:	00 00 00 
  8004201df5:	b8 00 00 00 00       	mov    $0x0,%eax
  8004201dfa:	49 b8 9b 01 20 04 80 	movabs $0x800420019b,%r8
  8004201e01:	00 00 00 
  8004201e04:	41 ff d0             	callq  *%r8
    while(_get_next_cu(dbg, &cu) == 0)
  8004201e07:	e9 46 01 00 00       	jmpq   8004201f52 <debuginfo_rip+0x2e7>
    {
	    if(dwarf_siblingof(dbg, NULL, &cudie, &cu) == DW_DLE_NO_ENTRY)
  8004201e0c:	48 b8 c8 b5 21 04 80 	movabs $0x800421b5c8,%rax
  8004201e13:	00 00 00 
  8004201e16:	48 8b 00             	mov    (%rax),%rax
  8004201e19:	48 8d 4d a0          	lea    -0x60(%rbp),%rcx
  8004201e1d:	48 8d 95 c0 9e ff ff 	lea    -0x6140(%rbp),%rdx
  8004201e24:	be 00 00 00 00       	mov    $0x0,%esi
  8004201e29:	48 89 c7             	mov    %rax,%rdi
  8004201e2c:	48 b8 5f 4e 20 04 80 	movabs $0x8004204e5f,%rax
  8004201e33:	00 00 00 
  8004201e36:	ff d0                	callq  *%rax
  8004201e38:	83 f8 04             	cmp    $0x4,%eax
  8004201e3b:	0f 84 0a 01 00 00    	je     8004201f4b <debuginfo_rip+0x2e0>
	    {
		    continue;
	    }	
	    cudie.cu_header = &cu;
  8004201e41:	48 8d 45 a0          	lea    -0x60(%rbp),%rax
  8004201e45:	48 89 85 20 a2 ff ff 	mov    %rax,-0x5de0(%rbp)
	    cudie.cu_die = NULL;
  8004201e4c:	48 c7 85 28 a2 ff ff 	movq   $0x0,-0x5dd8(%rbp)
  8004201e53:	00 00 00 00 
	    
	    if(dwarf_child(dbg, &cu, &cudie, &die) == DW_DLE_NO_ENTRY)
  8004201e57:	48 b8 c8 b5 21 04 80 	movabs $0x800421b5c8,%rax
  8004201e5e:	00 00 00 
  8004201e61:	48 8b 00             	mov    (%rax),%rax
  8004201e64:	48 8d 8d 30 cf ff ff 	lea    -0x30d0(%rbp),%rcx
  8004201e6b:	48 8d 95 c0 9e ff ff 	lea    -0x6140(%rbp),%rdx
  8004201e72:	48 8d 75 a0          	lea    -0x60(%rbp),%rsi
  8004201e76:	48 89 c7             	mov    %rax,%rdi
  8004201e79:	48 b8 a3 50 20 04 80 	movabs $0x80042050a3,%rax
  8004201e80:	00 00 00 
  8004201e83:	ff d0                	callq  *%rax
  8004201e85:	83 f8 04             	cmp    $0x4,%eax
  8004201e88:	0f 84 c0 00 00 00    	je     8004201f4e <debuginfo_rip+0x2e3>
	    {
		    continue;
	    }	
	    die.cu_header = &cu;
  8004201e8e:	48 8d 45 a0          	lea    -0x60(%rbp),%rax
  8004201e92:	48 89 85 90 d2 ff ff 	mov    %rax,-0x2d70(%rbp)
	    die.cu_die = &cudie;
  8004201e99:	48 8d 85 c0 9e ff ff 	lea    -0x6140(%rbp),%rax
  8004201ea0:	48 89 85 98 d2 ff ff 	mov    %rax,-0x2d68(%rbp)
	    while(1)
	    {
		    if(list_func_die(info, &die, addr))
  8004201ea7:	48 8b 95 48 6e ff ff 	mov    -0x91b8(%rbp),%rdx
  8004201eae:	48 8d 8d 30 cf ff ff 	lea    -0x30d0(%rbp),%rcx
  8004201eb5:	48 8b 85 40 6e ff ff 	mov    -0x91c0(%rbp),%rax
  8004201ebc:	48 89 ce             	mov    %rcx,%rsi
  8004201ebf:	48 89 c7             	mov    %rax,%rdi
  8004201ec2:	48 b8 fc 16 20 04 80 	movabs $0x80042016fc,%rax
  8004201ec9:	00 00 00 
  8004201ecc:	ff d0                	callq  *%rax
  8004201ece:	85 c0                	test   %eax,%eax
  8004201ed0:	0f 85 ae 00 00 00    	jne    8004201f84 <debuginfo_rip+0x319>
			    goto find_done;
		    if(dwarf_siblingof(dbg, &die, &die2, &cu) < 0)
  8004201ed6:	48 b8 c8 b5 21 04 80 	movabs $0x800421b5c8,%rax
  8004201edd:	00 00 00 
  8004201ee0:	48 8b 00             	mov    (%rax),%rax
  8004201ee3:	48 8d 4d a0          	lea    -0x60(%rbp),%rcx
  8004201ee7:	48 8d 95 50 6e ff ff 	lea    -0x91b0(%rbp),%rdx
  8004201eee:	48 8d b5 30 cf ff ff 	lea    -0x30d0(%rbp),%rsi
  8004201ef5:	48 89 c7             	mov    %rax,%rdi
  8004201ef8:	48 b8 5f 4e 20 04 80 	movabs $0x8004204e5f,%rax
  8004201eff:	00 00 00 
  8004201f02:	ff d0                	callq  *%rax
  8004201f04:	85 c0                	test   %eax,%eax
  8004201f06:	78 49                	js     8004201f51 <debuginfo_rip+0x2e6>
			    break; 
		    die = die2;
  8004201f08:	48 8d 85 30 cf ff ff 	lea    -0x30d0(%rbp),%rax
  8004201f0f:	48 8d 8d 50 6e ff ff 	lea    -0x91b0(%rbp),%rcx
  8004201f16:	ba 70 30 00 00       	mov    $0x3070,%edx
  8004201f1b:	48 89 ce             	mov    %rcx,%rsi
  8004201f1e:	48 89 c7             	mov    %rax,%rdi
  8004201f21:	48 b8 fd 2f 20 04 80 	movabs $0x8004202ffd,%rax
  8004201f28:	00 00 00 
  8004201f2b:	ff d0                	callq  *%rax
		    die.cu_header = &cu;
  8004201f2d:	48 8d 45 a0          	lea    -0x60(%rbp),%rax
  8004201f31:	48 89 85 90 d2 ff ff 	mov    %rax,-0x2d70(%rbp)
		    die.cu_die = &cudie;
  8004201f38:	48 8d 85 c0 9e ff ff 	lea    -0x6140(%rbp),%rax
  8004201f3f:	48 89 85 98 d2 ff ff 	mov    %rax,-0x2d68(%rbp)
	    }
  8004201f46:	e9 5c ff ff ff       	jmpq   8004201ea7 <debuginfo_rip+0x23c>
    assert(dbg->dbg_info_size);
    while(_get_next_cu(dbg, &cu) == 0)
    {
	    if(dwarf_siblingof(dbg, NULL, &cudie, &cu) == DW_DLE_NO_ENTRY)
	    {
		    continue;
  8004201f4b:	90                   	nop
  8004201f4c:	eb 04                	jmp    8004201f52 <debuginfo_rip+0x2e7>
	    cudie.cu_header = &cu;
	    cudie.cu_die = NULL;
	    
	    if(dwarf_child(dbg, &cu, &cudie, &die) == DW_DLE_NO_ENTRY)
	    {
		    continue;
  8004201f4e:	90                   	nop
  8004201f4f:	eb 01                	jmp    8004201f52 <debuginfo_rip+0x2e7>
	    while(1)
	    {
		    if(list_func_die(info, &die, addr))
			    goto find_done;
		    if(dwarf_siblingof(dbg, &die, &die2, &cu) < 0)
			    break; 
  8004201f51:	90                   	nop
    sect = _dwarf_find_section(".debug_info");	
    dbg->dbg_info_offset_elf = (uint64_t)sect->ds_data; 
    dbg->dbg_info_size = sect->ds_size;
    
    assert(dbg->dbg_info_size);
    while(_get_next_cu(dbg, &cu) == 0)
  8004201f52:	48 b8 c8 b5 21 04 80 	movabs $0x800421b5c8,%rax
  8004201f59:	00 00 00 
  8004201f5c:	48 8b 00             	mov    (%rax),%rax
  8004201f5f:	48 8d 55 a0          	lea    -0x60(%rbp),%rdx
  8004201f63:	48 89 d6             	mov    %rdx,%rsi
  8004201f66:	48 89 c7             	mov    %rax,%rdi
  8004201f69:	48 b8 7a 3d 20 04 80 	movabs $0x8004203d7a,%rax
  8004201f70:	00 00 00 
  8004201f73:	ff d0                	callq  *%rax
  8004201f75:	85 c0                	test   %eax,%eax
  8004201f77:	0f 84 8f fe ff ff    	je     8004201e0c <debuginfo_rip+0x1a1>
		    die.cu_header = &cu;
		    die.cu_die = &cudie;
	    }
    }
    
    return -1;
  8004201f7d:	b8 ff ff ff ff       	mov    $0xffffffff,%eax
  8004201f82:	eb 06                	jmp    8004201f8a <debuginfo_rip+0x31f>
	    die.cu_header = &cu;
	    die.cu_die = &cudie;
	    while(1)
	    {
		    if(list_func_die(info, &die, addr))
			    goto find_done;
  8004201f84:	90                   	nop
    }
    
    return -1;

find_done:
    return 0;
  8004201f85:	b8 00 00 00 00       	mov    $0x0,%eax

}
  8004201f8a:	c9                   	leaveq 
  8004201f8b:	c3                   	retq   

0000008004201f8c <printnum>:
 * using specified putch function and associated pointer putdat.
 */
static void
printnum(void (*putch)(int, void*), void *putdat,
	 unsigned long long num, unsigned base, int width, int padc)
{
  8004201f8c:	55                   	push   %rbp
  8004201f8d:	48 89 e5             	mov    %rsp,%rbp
  8004201f90:	48 83 ec 30          	sub    $0x30,%rsp
  8004201f94:	48 89 7d f8          	mov    %rdi,-0x8(%rbp)
  8004201f98:	48 89 75 f0          	mov    %rsi,-0x10(%rbp)
  8004201f9c:	48 89 55 e8          	mov    %rdx,-0x18(%rbp)
  8004201fa0:	89 4d e4             	mov    %ecx,-0x1c(%rbp)
  8004201fa3:	44 89 45 e0          	mov    %r8d,-0x20(%rbp)
  8004201fa7:	44 89 4d dc          	mov    %r9d,-0x24(%rbp)
	// first recursively print all preceding (more significant) digits
	if (num >= base) {
  8004201fab:	8b 45 e4             	mov    -0x1c(%rbp),%eax
  8004201fae:	48 3b 45 e8          	cmp    -0x18(%rbp),%rax
  8004201fb2:	77 52                	ja     8004202006 <printnum+0x7a>
		printnum(putch, putdat, num / base, base, width - 1, padc);
  8004201fb4:	8b 45 e0             	mov    -0x20(%rbp),%eax
  8004201fb7:	44 8d 40 ff          	lea    -0x1(%rax),%r8d
  8004201fbb:	8b 55 e4             	mov    -0x1c(%rbp),%edx
  8004201fbe:	48 89 55 d0          	mov    %rdx,-0x30(%rbp)
  8004201fc2:	48 8b 45 e8          	mov    -0x18(%rbp),%rax
  8004201fc6:	ba 00 00 00 00       	mov    $0x0,%edx
  8004201fcb:	48 f7 75 d0          	divq   -0x30(%rbp)
  8004201fcf:	48 89 c2             	mov    %rax,%rdx
  8004201fd2:	8b 7d dc             	mov    -0x24(%rbp),%edi
  8004201fd5:	8b 4d e4             	mov    -0x1c(%rbp),%ecx
  8004201fd8:	48 8b 75 f0          	mov    -0x10(%rbp),%rsi
  8004201fdc:	48 8b 45 f8          	mov    -0x8(%rbp),%rax
  8004201fe0:	41 89 f9             	mov    %edi,%r9d
  8004201fe3:	48 89 c7             	mov    %rax,%rdi
  8004201fe6:	48 b8 8c 1f 20 04 80 	movabs $0x8004201f8c,%rax
  8004201fed:	00 00 00 
  8004201ff0:	ff d0                	callq  *%rax
  8004201ff2:	eb 1c                	jmp    8004202010 <printnum+0x84>
	} else {
		// print any needed pad characters before first digit
		while (--width > 0)
			putch(padc, putdat);
  8004201ff4:	48 8b 55 f0          	mov    -0x10(%rbp),%rdx
  8004201ff8:	8b 45 dc             	mov    -0x24(%rbp),%eax
  8004201ffb:	48 8b 4d f8          	mov    -0x8(%rbp),%rcx
  8004201fff:	48 89 d6             	mov    %rdx,%rsi
  8004202002:	89 c7                	mov    %eax,%edi
  8004202004:	ff d1                	callq  *%rcx
	// first recursively print all preceding (more significant) digits
	if (num >= base) {
		printnum(putch, putdat, num / base, base, width - 1, padc);
	} else {
		// print any needed pad characters before first digit
		while (--width > 0)
  8004202006:	83 6d e0 01          	subl   $0x1,-0x20(%rbp)
  800420200a:	83 7d e0 00          	cmpl   $0x0,-0x20(%rbp)
  800420200e:	7f e4                	jg     8004201ff4 <printnum+0x68>
			putch(padc, putdat);
	}

	// then print this (the least significant) digit
	putch("0123456789abcdef"[num % base], putdat);
  8004202010:	8b 4d e4             	mov    -0x1c(%rbp),%ecx
  8004202013:	48 8b 45 e8          	mov    -0x18(%rbp),%rax
  8004202017:	ba 00 00 00 00       	mov    $0x0,%edx
  800420201c:	48 f7 f1             	div    %rcx
  800420201f:	48 89 d0             	mov    %rdx,%rax
  8004202022:	48 ba c0 9a 20 04 80 	movabs $0x8004209ac0,%rdx
  8004202029:	00 00 00 
  800420202c:	0f b6 04 02          	movzbl (%rdx,%rax,1),%eax
  8004202030:	0f be c0             	movsbl %al,%eax
  8004202033:	48 8b 55 f0          	mov    -0x10(%rbp),%rdx
  8004202037:	48 8b 4d f8          	mov    -0x8(%rbp),%rcx
  800420203b:	48 89 d6             	mov    %rdx,%rsi
  800420203e:	89 c7                	mov    %eax,%edi
  8004202040:	ff d1                	callq  *%rcx
}
  8004202042:	c9                   	leaveq 
  8004202043:	c3                   	retq   

0000008004202044 <getuint>:

// Get an unsigned int of various possible sizes from a varargs list,
// depending on the lflag parameter.
static unsigned long long
getuint(va_list *ap, int lflag)
{
  8004202044:	55                   	push   %rbp
  8004202045:	48 89 e5             	mov    %rsp,%rbp
  8004202048:	48 83 ec 20          	sub    $0x20,%rsp
  800420204c:	48 89 7d e8          	mov    %rdi,-0x18(%rbp)
  8004202050:	89 75 e4             	mov    %esi,-0x1c(%rbp)
	unsigned long long x;    
	if (lflag >= 2)
  8004202053:	83 7d e4 01          	cmpl   $0x1,-0x1c(%rbp)
  8004202057:	7e 52                	jle    80042020ab <getuint+0x67>
		x= va_arg(*ap, unsigned long long);
  8004202059:	48 8b 45 e8          	mov    -0x18(%rbp),%rax
  800420205d:	8b 00                	mov    (%rax),%eax
  800420205f:	83 f8 30             	cmp    $0x30,%eax
  8004202062:	73 24                	jae    8004202088 <getuint+0x44>
  8004202064:	48 8b 45 e8          	mov    -0x18(%rbp),%rax
  8004202068:	48 8b 50 10          	mov    0x10(%rax),%rdx
  800420206c:	48 8b 45 e8          	mov    -0x18(%rbp),%rax
  8004202070:	8b 00                	mov    (%rax),%eax
  8004202072:	89 c0                	mov    %eax,%eax
  8004202074:	48 01 d0             	add    %rdx,%rax
  8004202077:	48 8b 55 e8          	mov    -0x18(%rbp),%rdx
  800420207b:	8b 12                	mov    (%rdx),%edx
  800420207d:	8d 4a 08             	lea    0x8(%rdx),%ecx
  8004202080:	48 8b 55 e8          	mov    -0x18(%rbp),%rdx
  8004202084:	89 0a                	mov    %ecx,(%rdx)
  8004202086:	eb 17                	jmp    800420209f <getuint+0x5b>
  8004202088:	48 8b 45 e8          	mov    -0x18(%rbp),%rax
  800420208c:	48 8b 50 08          	mov    0x8(%rax),%rdx
  8004202090:	48 89 d0             	mov    %rdx,%rax
  8004202093:	48 8d 4a 08          	lea    0x8(%rdx),%rcx
  8004202097:	48 8b 55 e8          	mov    -0x18(%rbp),%rdx
  800420209b:	48 89 4a 08          	mov    %rcx,0x8(%rdx)
  800420209f:	48 8b 00             	mov    (%rax),%rax
  80042020a2:	48 89 45 f8          	mov    %rax,-0x8(%rbp)
  80042020a6:	e9 a3 00 00 00       	jmpq   800420214e <getuint+0x10a>
	else if (lflag)
  80042020ab:	83 7d e4 00          	cmpl   $0x0,-0x1c(%rbp)
  80042020af:	74 4f                	je     8004202100 <getuint+0xbc>
		x= va_arg(*ap, unsigned long);
  80042020b1:	48 8b 45 e8          	mov    -0x18(%rbp),%rax
  80042020b5:	8b 00                	mov    (%rax),%eax
  80042020b7:	83 f8 30             	cmp    $0x30,%eax
  80042020ba:	73 24                	jae    80042020e0 <getuint+0x9c>
  80042020bc:	48 8b 45 e8          	mov    -0x18(%rbp),%rax
  80042020c0:	48 8b 50 10          	mov    0x10(%rax),%rdx
  80042020c4:	48 8b 45 e8          	mov    -0x18(%rbp),%rax
  80042020c8:	8b 00                	mov    (%rax),%eax
  80042020ca:	89 c0                	mov    %eax,%eax
  80042020cc:	48 01 d0             	add    %rdx,%rax
  80042020cf:	48 8b 55 e8          	mov    -0x18(%rbp),%rdx
  80042020d3:	8b 12                	mov    (%rdx),%edx
  80042020d5:	8d 4a 08             	lea    0x8(%rdx),%ecx
  80042020d8:	48 8b 55 e8          	mov    -0x18(%rbp),%rdx
  80042020dc:	89 0a                	mov    %ecx,(%rdx)
  80042020de:	eb 17                	jmp    80042020f7 <getuint+0xb3>
  80042020e0:	48 8b 45 e8          	mov    -0x18(%rbp),%rax
  80042020e4:	48 8b 50 08          	mov    0x8(%rax),%rdx
  80042020e8:	48 89 d0             	mov    %rdx,%rax
  80042020eb:	48 8d 4a 08          	lea    0x8(%rdx),%rcx
  80042020ef:	48 8b 55 e8          	mov    -0x18(%rbp),%rdx
  80042020f3:	48 89 4a 08          	mov    %rcx,0x8(%rdx)
  80042020f7:	48 8b 00             	mov    (%rax),%rax
  80042020fa:	48 89 45 f8          	mov    %rax,-0x8(%rbp)
  80042020fe:	eb 4e                	jmp    800420214e <getuint+0x10a>
	else
		x= va_arg(*ap, unsigned int);
  8004202100:	48 8b 45 e8          	mov    -0x18(%rbp),%rax
  8004202104:	8b 00                	mov    (%rax),%eax
  8004202106:	83 f8 30             	cmp    $0x30,%eax
  8004202109:	73 24                	jae    800420212f <getuint+0xeb>
  800420210b:	48 8b 45 e8          	mov    -0x18(%rbp),%rax
  800420210f:	48 8b 50 10          	mov    0x10(%rax),%rdx
  8004202113:	48 8b 45 e8          	mov    -0x18(%rbp),%rax
  8004202117:	8b 00                	mov    (%rax),%eax
  8004202119:	89 c0                	mov    %eax,%eax
  800420211b:	48 01 d0             	add    %rdx,%rax
  800420211e:	48 8b 55 e8          	mov    -0x18(%rbp),%rdx
  8004202122:	8b 12                	mov    (%rdx),%edx
  8004202124:	8d 4a 08             	lea    0x8(%rdx),%ecx
  8004202127:	48 8b 55 e8          	mov    -0x18(%rbp),%rdx
  800420212b:	89 0a                	mov    %ecx,(%rdx)
  800420212d:	eb 17                	jmp    8004202146 <getuint+0x102>
  800420212f:	48 8b 45 e8          	mov    -0x18(%rbp),%rax
  8004202133:	48 8b 50 08          	mov    0x8(%rax),%rdx
  8004202137:	48 89 d0             	mov    %rdx,%rax
  800420213a:	48 8d 4a 08          	lea    0x8(%rdx),%rcx
  800420213e:	48 8b 55 e8          	mov    -0x18(%rbp),%rdx
  8004202142:	48 89 4a 08          	mov    %rcx,0x8(%rdx)
  8004202146:	8b 00                	mov    (%rax),%eax
  8004202148:	89 c0                	mov    %eax,%eax
  800420214a:	48 89 45 f8          	mov    %rax,-0x8(%rbp)
	return x;
  800420214e:	48 8b 45 f8          	mov    -0x8(%rbp),%rax
}
  8004202152:	c9                   	leaveq 
  8004202153:	c3                   	retq   

0000008004202154 <getint>:

// Same as getuint but signed - can't use getuint
// because of sign extension
static long long
getint(va_list *ap, int lflag)
{
  8004202154:	55                   	push   %rbp
  8004202155:	48 89 e5             	mov    %rsp,%rbp
  8004202158:	48 83 ec 20          	sub    $0x20,%rsp
  800420215c:	48 89 7d e8          	mov    %rdi,-0x18(%rbp)
  8004202160:	89 75 e4             	mov    %esi,-0x1c(%rbp)
	long long x;
	if (lflag >= 2)
  8004202163:	83 7d e4 01          	cmpl   $0x1,-0x1c(%rbp)
  8004202167:	7e 52                	jle    80042021bb <getint+0x67>
		x=va_arg(*ap, long long);
  8004202169:	48 8b 45 e8          	mov    -0x18(%rbp),%rax
  800420216d:	8b 00                	mov    (%rax),%eax
  800420216f:	83 f8 30             	cmp    $0x30,%eax
  8004202172:	73 24                	jae    8004202198 <getint+0x44>
  8004202174:	48 8b 45 e8          	mov    -0x18(%rbp),%rax
  8004202178:	48 8b 50 10          	mov    0x10(%rax),%rdx
  800420217c:	48 8b 45 e8          	mov    -0x18(%rbp),%rax
  8004202180:	8b 00                	mov    (%rax),%eax
  8004202182:	89 c0                	mov    %eax,%eax
  8004202184:	48 01 d0             	add    %rdx,%rax
  8004202187:	48 8b 55 e8          	mov    -0x18(%rbp),%rdx
  800420218b:	8b 12                	mov    (%rdx),%edx
  800420218d:	8d 4a 08             	lea    0x8(%rdx),%ecx
  8004202190:	48 8b 55 e8          	mov    -0x18(%rbp),%rdx
  8004202194:	89 0a                	mov    %ecx,(%rdx)
  8004202196:	eb 17                	jmp    80042021af <getint+0x5b>
  8004202198:	48 8b 45 e8          	mov    -0x18(%rbp),%rax
  800420219c:	48 8b 50 08          	mov    0x8(%rax),%rdx
  80042021a0:	48 89 d0             	mov    %rdx,%rax
  80042021a3:	48 8d 4a 08          	lea    0x8(%rdx),%rcx
  80042021a7:	48 8b 55 e8          	mov    -0x18(%rbp),%rdx
  80042021ab:	48 89 4a 08          	mov    %rcx,0x8(%rdx)
  80042021af:	48 8b 00             	mov    (%rax),%rax
  80042021b2:	48 89 45 f8          	mov    %rax,-0x8(%rbp)
  80042021b6:	e9 a3 00 00 00       	jmpq   800420225e <getint+0x10a>
	else if (lflag)
  80042021bb:	83 7d e4 00          	cmpl   $0x0,-0x1c(%rbp)
  80042021bf:	74 4f                	je     8004202210 <getint+0xbc>
		x=va_arg(*ap, long);
  80042021c1:	48 8b 45 e8          	mov    -0x18(%rbp),%rax
  80042021c5:	8b 00                	mov    (%rax),%eax
  80042021c7:	83 f8 30             	cmp    $0x30,%eax
  80042021ca:	73 24                	jae    80042021f0 <getint+0x9c>
  80042021cc:	48 8b 45 e8          	mov    -0x18(%rbp),%rax
  80042021d0:	48 8b 50 10          	mov    0x10(%rax),%rdx
  80042021d4:	48 8b 45 e8          	mov    -0x18(%rbp),%rax
  80042021d8:	8b 00                	mov    (%rax),%eax
  80042021da:	89 c0                	mov    %eax,%eax
  80042021dc:	48 01 d0             	add    %rdx,%rax
  80042021df:	48 8b 55 e8          	mov    -0x18(%rbp),%rdx
  80042021e3:	8b 12                	mov    (%rdx),%edx
  80042021e5:	8d 4a 08             	lea    0x8(%rdx),%ecx
  80042021e8:	48 8b 55 e8          	mov    -0x18(%rbp),%rdx
  80042021ec:	89 0a                	mov    %ecx,(%rdx)
  80042021ee:	eb 17                	jmp    8004202207 <getint+0xb3>
  80042021f0:	48 8b 45 e8          	mov    -0x18(%rbp),%rax
  80042021f4:	48 8b 50 08          	mov    0x8(%rax),%rdx
  80042021f8:	48 89 d0             	mov    %rdx,%rax
  80042021fb:	48 8d 4a 08          	lea    0x8(%rdx),%rcx
  80042021ff:	48 8b 55 e8          	mov    -0x18(%rbp),%rdx
  8004202203:	48 89 4a 08          	mov    %rcx,0x8(%rdx)
  8004202207:	48 8b 00             	mov    (%rax),%rax
  800420220a:	48 89 45 f8          	mov    %rax,-0x8(%rbp)
  800420220e:	eb 4e                	jmp    800420225e <getint+0x10a>
	else
		x=va_arg(*ap, int);
  8004202210:	48 8b 45 e8          	mov    -0x18(%rbp),%rax
  8004202214:	8b 00                	mov    (%rax),%eax
  8004202216:	83 f8 30             	cmp    $0x30,%eax
  8004202219:	73 24                	jae    800420223f <getint+0xeb>
  800420221b:	48 8b 45 e8          	mov    -0x18(%rbp),%rax
  800420221f:	48 8b 50 10          	mov    0x10(%rax),%rdx
  8004202223:	48 8b 45 e8          	mov    -0x18(%rbp),%rax
  8004202227:	8b 00                	mov    (%rax),%eax
  8004202229:	89 c0                	mov    %eax,%eax
  800420222b:	48 01 d0             	add    %rdx,%rax
  800420222e:	48 8b 55 e8          	mov    -0x18(%rbp),%rdx
  8004202232:	8b 12                	mov    (%rdx),%edx
  8004202234:	8d 4a 08             	lea    0x8(%rdx),%ecx
  8004202237:	48 8b 55 e8          	mov    -0x18(%rbp),%rdx
  800420223b:	89 0a                	mov    %ecx,(%rdx)
  800420223d:	eb 17                	jmp    8004202256 <getint+0x102>
  800420223f:	48 8b 45 e8          	mov    -0x18(%rbp),%rax
  8004202243:	48 8b 50 08          	mov    0x8(%rax),%rdx
  8004202247:	48 89 d0             	mov    %rdx,%rax
  800420224a:	48 8d 4a 08          	lea    0x8(%rdx),%rcx
  800420224e:	48 8b 55 e8          	mov    -0x18(%rbp),%rdx
  8004202252:	48 89 4a 08          	mov    %rcx,0x8(%rdx)
  8004202256:	8b 00                	mov    (%rax),%eax
  8004202258:	48 98                	cltq   
  800420225a:	48 89 45 f8          	mov    %rax,-0x8(%rbp)
	return x;
  800420225e:	48 8b 45 f8          	mov    -0x8(%rbp),%rax
}
  8004202262:	c9                   	leaveq 
  8004202263:	c3                   	retq   

0000008004202264 <vprintfmt>:
// Main function to format and print a string.
void printfmt(void (*putch)(int, void*), void *putdat, const char *fmt, ...);

void
vprintfmt(void (*putch)(int, void*), void *putdat, const char *fmt, va_list ap)
{
  8004202264:	55                   	push   %rbp
  8004202265:	48 89 e5             	mov    %rsp,%rbp
  8004202268:	41 54                	push   %r12
  800420226a:	53                   	push   %rbx
  800420226b:	48 83 ec 60          	sub    $0x60,%rsp
  800420226f:	48 89 7d a8          	mov    %rdi,-0x58(%rbp)
  8004202273:	48 89 75 a0          	mov    %rsi,-0x60(%rbp)
  8004202277:	48 89 55 98          	mov    %rdx,-0x68(%rbp)
  800420227b:	48 89 4d 90          	mov    %rcx,-0x70(%rbp)
	register int ch, err;
	unsigned long long num;
	int base, lflag, width, precision, altflag;
	char padc;
	va_list aq;
	va_copy(aq,ap);
  800420227f:	48 8d 45 b8          	lea    -0x48(%rbp),%rax
  8004202283:	48 8b 55 90          	mov    -0x70(%rbp),%rdx
  8004202287:	48 8b 0a             	mov    (%rdx),%rcx
  800420228a:	48 89 08             	mov    %rcx,(%rax)
  800420228d:	48 8b 4a 08          	mov    0x8(%rdx),%rcx
  8004202291:	48 89 48 08          	mov    %rcx,0x8(%rax)
  8004202295:	48 8b 52 10          	mov    0x10(%rdx),%rdx
  8004202299:	48 89 50 10          	mov    %rdx,0x10(%rax)
	while (1) {
		while ((ch = *(unsigned char *) fmt++) != '%') {
  800420229d:	eb 17                	jmp    80042022b6 <vprintfmt+0x52>
			if (ch == '\0')
  800420229f:	85 db                	test   %ebx,%ebx
  80042022a1:	0f 84 d7 04 00 00    	je     800420277e <vprintfmt+0x51a>
				return;
			putch(ch, putdat);
  80042022a7:	48 8b 45 a0          	mov    -0x60(%rbp),%rax
  80042022ab:	48 8b 55 a8          	mov    -0x58(%rbp),%rdx
  80042022af:	48 89 c6             	mov    %rax,%rsi
  80042022b2:	89 df                	mov    %ebx,%edi
  80042022b4:	ff d2                	callq  *%rdx
	int base, lflag, width, precision, altflag;
	char padc;
	va_list aq;
	va_copy(aq,ap);
	while (1) {
		while ((ch = *(unsigned char *) fmt++) != '%') {
  80042022b6:	48 8b 45 98          	mov    -0x68(%rbp),%rax
  80042022ba:	0f b6 00             	movzbl (%rax),%eax
  80042022bd:	0f b6 d8             	movzbl %al,%ebx
  80042022c0:	83 fb 25             	cmp    $0x25,%ebx
  80042022c3:	0f 95 c0             	setne  %al
  80042022c6:	48 83 45 98 01       	addq   $0x1,-0x68(%rbp)
  80042022cb:	84 c0                	test   %al,%al
  80042022cd:	75 d0                	jne    800420229f <vprintfmt+0x3b>
				return;
			putch(ch, putdat);
		}

		// Process a %-escape sequence
		padc = ' ';
  80042022cf:	c6 45 d3 20          	movb   $0x20,-0x2d(%rbp)
		width = -1;
  80042022d3:	c7 45 dc ff ff ff ff 	movl   $0xffffffff,-0x24(%rbp)
		precision = -1;
  80042022da:	c7 45 d8 ff ff ff ff 	movl   $0xffffffff,-0x28(%rbp)
		lflag = 0;
  80042022e1:	c7 45 e0 00 00 00 00 	movl   $0x0,-0x20(%rbp)
		altflag = 0;
  80042022e8:	c7 45 d4 00 00 00 00 	movl   $0x0,-0x2c(%rbp)
  80042022ef:	eb 04                	jmp    80042022f5 <vprintfmt+0x91>
			goto process_precision;

		case '.':
			if (width < 0)
				width = 0;
			goto reswitch;
  80042022f1:	90                   	nop
  80042022f2:	eb 01                	jmp    80042022f5 <vprintfmt+0x91>
			goto reswitch;

		process_precision:
			if (width < 0)
				width = precision, precision = -1;
			goto reswitch;
  80042022f4:	90                   	nop
		width = -1;
		precision = -1;
		lflag = 0;
		altflag = 0;
	reswitch:
		switch (ch = *(unsigned char *) fmt++) {
  80042022f5:	48 8b 45 98          	mov    -0x68(%rbp),%rax
  80042022f9:	0f b6 00             	movzbl (%rax),%eax
  80042022fc:	0f b6 d8             	movzbl %al,%ebx
  80042022ff:	89 d8                	mov    %ebx,%eax
  8004202301:	48 83 45 98 01       	addq   $0x1,-0x68(%rbp)
  8004202306:	83 e8 23             	sub    $0x23,%eax
  8004202309:	83 f8 55             	cmp    $0x55,%eax
  800420230c:	0f 87 38 04 00 00    	ja     800420274a <vprintfmt+0x4e6>
  8004202312:	89 c0                	mov    %eax,%eax
  8004202314:	48 8d 14 c5 00 00 00 	lea    0x0(,%rax,8),%rdx
  800420231b:	00 
  800420231c:	48 b8 e8 9a 20 04 80 	movabs $0x8004209ae8,%rax
  8004202323:	00 00 00 
  8004202326:	48 01 d0             	add    %rdx,%rax
  8004202329:	48 8b 00             	mov    (%rax),%rax
  800420232c:	ff e0                	jmpq   *%rax

		// flag to pad on the right
		case '-':
			padc = '-';
  800420232e:	c6 45 d3 2d          	movb   $0x2d,-0x2d(%rbp)
			goto reswitch;
  8004202332:	eb c1                	jmp    80042022f5 <vprintfmt+0x91>

		// flag to pad with 0's instead of spaces
		case '0':
			padc = '0';
  8004202334:	c6 45 d3 30          	movb   $0x30,-0x2d(%rbp)
			goto reswitch;
  8004202338:	eb bb                	jmp    80042022f5 <vprintfmt+0x91>
		case '5':
		case '6':
		case '7':
		case '8':
		case '9':
			for (precision = 0; ; ++fmt) {
  800420233a:	c7 45 d8 00 00 00 00 	movl   $0x0,-0x28(%rbp)
				precision = precision * 10 + ch - '0';
  8004202341:	8b 55 d8             	mov    -0x28(%rbp),%edx
  8004202344:	89 d0                	mov    %edx,%eax
  8004202346:	c1 e0 02             	shl    $0x2,%eax
  8004202349:	01 d0                	add    %edx,%eax
  800420234b:	01 c0                	add    %eax,%eax
  800420234d:	01 d8                	add    %ebx,%eax
  800420234f:	83 e8 30             	sub    $0x30,%eax
  8004202352:	89 45 d8             	mov    %eax,-0x28(%rbp)
				ch = *fmt;
  8004202355:	48 8b 45 98          	mov    -0x68(%rbp),%rax
  8004202359:	0f b6 00             	movzbl (%rax),%eax
  800420235c:	0f be d8             	movsbl %al,%ebx
				if (ch < '0' || ch > '9')
  800420235f:	83 fb 2f             	cmp    $0x2f,%ebx
  8004202362:	7e 63                	jle    80042023c7 <vprintfmt+0x163>
  8004202364:	83 fb 39             	cmp    $0x39,%ebx
  8004202367:	7f 5e                	jg     80042023c7 <vprintfmt+0x163>
		case '5':
		case '6':
		case '7':
		case '8':
		case '9':
			for (precision = 0; ; ++fmt) {
  8004202369:	48 83 45 98 01       	addq   $0x1,-0x68(%rbp)
				precision = precision * 10 + ch - '0';
				ch = *fmt;
				if (ch < '0' || ch > '9')
					break;
			}
  800420236e:	eb d1                	jmp    8004202341 <vprintfmt+0xdd>
			goto process_precision;

		case '*':
			precision = va_arg(aq, int);
  8004202370:	8b 45 b8             	mov    -0x48(%rbp),%eax
  8004202373:	83 f8 30             	cmp    $0x30,%eax
  8004202376:	73 17                	jae    800420238f <vprintfmt+0x12b>
  8004202378:	48 8b 55 c8          	mov    -0x38(%rbp),%rdx
  800420237c:	8b 45 b8             	mov    -0x48(%rbp),%eax
  800420237f:	89 c0                	mov    %eax,%eax
  8004202381:	48 01 d0             	add    %rdx,%rax
  8004202384:	8b 55 b8             	mov    -0x48(%rbp),%edx
  8004202387:	83 c2 08             	add    $0x8,%edx
  800420238a:	89 55 b8             	mov    %edx,-0x48(%rbp)
  800420238d:	eb 0f                	jmp    800420239e <vprintfmt+0x13a>
  800420238f:	48 8b 55 c0          	mov    -0x40(%rbp),%rdx
  8004202393:	48 89 d0             	mov    %rdx,%rax
  8004202396:	48 83 c2 08          	add    $0x8,%rdx
  800420239a:	48 89 55 c0          	mov    %rdx,-0x40(%rbp)
  800420239e:	8b 00                	mov    (%rax),%eax
  80042023a0:	89 45 d8             	mov    %eax,-0x28(%rbp)
			goto process_precision;
  80042023a3:	eb 23                	jmp    80042023c8 <vprintfmt+0x164>

		case '.':
			if (width < 0)
  80042023a5:	83 7d dc 00          	cmpl   $0x0,-0x24(%rbp)
  80042023a9:	0f 89 42 ff ff ff    	jns    80042022f1 <vprintfmt+0x8d>
				width = 0;
  80042023af:	c7 45 dc 00 00 00 00 	movl   $0x0,-0x24(%rbp)
			goto reswitch;
  80042023b6:	e9 36 ff ff ff       	jmpq   80042022f1 <vprintfmt+0x8d>

		case '#':
			altflag = 1;
  80042023bb:	c7 45 d4 01 00 00 00 	movl   $0x1,-0x2c(%rbp)
			goto reswitch;
  80042023c2:	e9 2e ff ff ff       	jmpq   80042022f5 <vprintfmt+0x91>
				precision = precision * 10 + ch - '0';
				ch = *fmt;
				if (ch < '0' || ch > '9')
					break;
			}
			goto process_precision;
  80042023c7:	90                   	nop
		case '#':
			altflag = 1;
			goto reswitch;

		process_precision:
			if (width < 0)
  80042023c8:	83 7d dc 00          	cmpl   $0x0,-0x24(%rbp)
  80042023cc:	0f 89 22 ff ff ff    	jns    80042022f4 <vprintfmt+0x90>
				width = precision, precision = -1;
  80042023d2:	8b 45 d8             	mov    -0x28(%rbp),%eax
  80042023d5:	89 45 dc             	mov    %eax,-0x24(%rbp)
  80042023d8:	c7 45 d8 ff ff ff ff 	movl   $0xffffffff,-0x28(%rbp)
			goto reswitch;
  80042023df:	e9 10 ff ff ff       	jmpq   80042022f4 <vprintfmt+0x90>

		// long flag (doubled for long long)
		case 'l':
			lflag++;
  80042023e4:	83 45 e0 01          	addl   $0x1,-0x20(%rbp)
			goto reswitch;
  80042023e8:	e9 08 ff ff ff       	jmpq   80042022f5 <vprintfmt+0x91>

		// character
		case 'c':
			putch(va_arg(aq, int), putdat);
  80042023ed:	8b 45 b8             	mov    -0x48(%rbp),%eax
  80042023f0:	83 f8 30             	cmp    $0x30,%eax
  80042023f3:	73 17                	jae    800420240c <vprintfmt+0x1a8>
  80042023f5:	48 8b 55 c8          	mov    -0x38(%rbp),%rdx
  80042023f9:	8b 45 b8             	mov    -0x48(%rbp),%eax
  80042023fc:	89 c0                	mov    %eax,%eax
  80042023fe:	48 01 d0             	add    %rdx,%rax
  8004202401:	8b 55 b8             	mov    -0x48(%rbp),%edx
  8004202404:	83 c2 08             	add    $0x8,%edx
  8004202407:	89 55 b8             	mov    %edx,-0x48(%rbp)
  800420240a:	eb 0f                	jmp    800420241b <vprintfmt+0x1b7>
  800420240c:	48 8b 55 c0          	mov    -0x40(%rbp),%rdx
  8004202410:	48 89 d0             	mov    %rdx,%rax
  8004202413:	48 83 c2 08          	add    $0x8,%rdx
  8004202417:	48 89 55 c0          	mov    %rdx,-0x40(%rbp)
  800420241b:	8b 00                	mov    (%rax),%eax
  800420241d:	48 8b 55 a0          	mov    -0x60(%rbp),%rdx
  8004202421:	48 8b 4d a8          	mov    -0x58(%rbp),%rcx
  8004202425:	48 89 d6             	mov    %rdx,%rsi
  8004202428:	89 c7                	mov    %eax,%edi
  800420242a:	ff d1                	callq  *%rcx
			break;
  800420242c:	e9 47 03 00 00       	jmpq   8004202778 <vprintfmt+0x514>

		// error message
		case 'e':
			err = va_arg(aq, int);
  8004202431:	8b 45 b8             	mov    -0x48(%rbp),%eax
  8004202434:	83 f8 30             	cmp    $0x30,%eax
  8004202437:	73 17                	jae    8004202450 <vprintfmt+0x1ec>
  8004202439:	48 8b 55 c8          	mov    -0x38(%rbp),%rdx
  800420243d:	8b 45 b8             	mov    -0x48(%rbp),%eax
  8004202440:	89 c0                	mov    %eax,%eax
  8004202442:	48 01 d0             	add    %rdx,%rax
  8004202445:	8b 55 b8             	mov    -0x48(%rbp),%edx
  8004202448:	83 c2 08             	add    $0x8,%edx
  800420244b:	89 55 b8             	mov    %edx,-0x48(%rbp)
  800420244e:	eb 0f                	jmp    800420245f <vprintfmt+0x1fb>
  8004202450:	48 8b 55 c0          	mov    -0x40(%rbp),%rdx
  8004202454:	48 89 d0             	mov    %rdx,%rax
  8004202457:	48 83 c2 08          	add    $0x8,%rdx
  800420245b:	48 89 55 c0          	mov    %rdx,-0x40(%rbp)
  800420245f:	8b 18                	mov    (%rax),%ebx
			if (err < 0)
  8004202461:	85 db                	test   %ebx,%ebx
  8004202463:	79 02                	jns    8004202467 <vprintfmt+0x203>
				err = -err;
  8004202465:	f7 db                	neg    %ebx
			if (err >= MAXERROR || (p = error_string[err]) == NULL)
  8004202467:	83 fb 07             	cmp    $0x7,%ebx
  800420246a:	7f 16                	jg     8004202482 <vprintfmt+0x21e>
  800420246c:	48 b8 80 9a 20 04 80 	movabs $0x8004209a80,%rax
  8004202473:	00 00 00 
  8004202476:	48 63 d3             	movslq %ebx,%rdx
  8004202479:	4c 8b 24 d0          	mov    (%rax,%rdx,8),%r12
  800420247d:	4d 85 e4             	test   %r12,%r12
  8004202480:	75 2e                	jne    80042024b0 <vprintfmt+0x24c>
				printfmt(putch, putdat, "error %d", err);
  8004202482:	48 8b 75 a0          	mov    -0x60(%rbp),%rsi
  8004202486:	48 8b 45 a8          	mov    -0x58(%rbp),%rax
  800420248a:	89 d9                	mov    %ebx,%ecx
  800420248c:	48 ba d1 9a 20 04 80 	movabs $0x8004209ad1,%rdx
  8004202493:	00 00 00 
  8004202496:	48 89 c7             	mov    %rax,%rdi
  8004202499:	b8 00 00 00 00       	mov    $0x0,%eax
  800420249e:	49 b8 88 27 20 04 80 	movabs $0x8004202788,%r8
  80042024a5:	00 00 00 
  80042024a8:	41 ff d0             	callq  *%r8
			else
				printfmt(putch, putdat, "%s", p);
			break;
  80042024ab:	e9 c8 02 00 00       	jmpq   8004202778 <vprintfmt+0x514>
			if (err < 0)
				err = -err;
			if (err >= MAXERROR || (p = error_string[err]) == NULL)
				printfmt(putch, putdat, "error %d", err);
			else
				printfmt(putch, putdat, "%s", p);
  80042024b0:	48 8b 75 a0          	mov    -0x60(%rbp),%rsi
  80042024b4:	48 8b 45 a8          	mov    -0x58(%rbp),%rax
  80042024b8:	4c 89 e1             	mov    %r12,%rcx
  80042024bb:	48 ba da 9a 20 04 80 	movabs $0x8004209ada,%rdx
  80042024c2:	00 00 00 
  80042024c5:	48 89 c7             	mov    %rax,%rdi
  80042024c8:	b8 00 00 00 00       	mov    $0x0,%eax
  80042024cd:	49 b8 88 27 20 04 80 	movabs $0x8004202788,%r8
  80042024d4:	00 00 00 
  80042024d7:	41 ff d0             	callq  *%r8
			break;
  80042024da:	e9 99 02 00 00       	jmpq   8004202778 <vprintfmt+0x514>

		// string
		case 's':
			if ((p = va_arg(aq, char *)) == NULL)
  80042024df:	8b 45 b8             	mov    -0x48(%rbp),%eax
  80042024e2:	83 f8 30             	cmp    $0x30,%eax
  80042024e5:	73 17                	jae    80042024fe <vprintfmt+0x29a>
  80042024e7:	48 8b 55 c8          	mov    -0x38(%rbp),%rdx
  80042024eb:	8b 45 b8             	mov    -0x48(%rbp),%eax
  80042024ee:	89 c0                	mov    %eax,%eax
  80042024f0:	48 01 d0             	add    %rdx,%rax
  80042024f3:	8b 55 b8             	mov    -0x48(%rbp),%edx
  80042024f6:	83 c2 08             	add    $0x8,%edx
  80042024f9:	89 55 b8             	mov    %edx,-0x48(%rbp)
  80042024fc:	eb 0f                	jmp    800420250d <vprintfmt+0x2a9>
  80042024fe:	48 8b 55 c0          	mov    -0x40(%rbp),%rdx
  8004202502:	48 89 d0             	mov    %rdx,%rax
  8004202505:	48 83 c2 08          	add    $0x8,%rdx
  8004202509:	48 89 55 c0          	mov    %rdx,-0x40(%rbp)
  800420250d:	4c 8b 20             	mov    (%rax),%r12
  8004202510:	4d 85 e4             	test   %r12,%r12
  8004202513:	75 0a                	jne    800420251f <vprintfmt+0x2bb>
				p = "(null)";
  8004202515:	49 bc dd 9a 20 04 80 	movabs $0x8004209add,%r12
  800420251c:	00 00 00 
			if (width > 0 && padc != '-')
  800420251f:	83 7d dc 00          	cmpl   $0x0,-0x24(%rbp)
  8004202523:	7e 7a                	jle    800420259f <vprintfmt+0x33b>
  8004202525:	80 7d d3 2d          	cmpb   $0x2d,-0x2d(%rbp)
  8004202529:	74 74                	je     800420259f <vprintfmt+0x33b>
				for (width -= strnlen(p, precision); width > 0; width--)
  800420252b:	8b 45 d8             	mov    -0x28(%rbp),%eax
  800420252e:	48 98                	cltq   
  8004202530:	48 89 c6             	mov    %rax,%rsi
  8004202533:	4c 89 e7             	mov    %r12,%rdi
  8004202536:	48 b8 86 2b 20 04 80 	movabs $0x8004202b86,%rax
  800420253d:	00 00 00 
  8004202540:	ff d0                	callq  *%rax
  8004202542:	29 45 dc             	sub    %eax,-0x24(%rbp)
  8004202545:	eb 17                	jmp    800420255e <vprintfmt+0x2fa>
					putch(padc, putdat);
  8004202547:	0f be 45 d3          	movsbl -0x2d(%rbp),%eax
  800420254b:	48 8b 55 a0          	mov    -0x60(%rbp),%rdx
  800420254f:	48 8b 4d a8          	mov    -0x58(%rbp),%rcx
  8004202553:	48 89 d6             	mov    %rdx,%rsi
  8004202556:	89 c7                	mov    %eax,%edi
  8004202558:	ff d1                	callq  *%rcx
		// string
		case 's':
			if ((p = va_arg(aq, char *)) == NULL)
				p = "(null)";
			if (width > 0 && padc != '-')
				for (width -= strnlen(p, precision); width > 0; width--)
  800420255a:	83 6d dc 01          	subl   $0x1,-0x24(%rbp)
  800420255e:	83 7d dc 00          	cmpl   $0x0,-0x24(%rbp)
  8004202562:	7f e3                	jg     8004202547 <vprintfmt+0x2e3>
					putch(padc, putdat);
			for (; (ch = *p++) != '\0' && (precision < 0 || --precision >= 0); width--)
  8004202564:	eb 39                	jmp    800420259f <vprintfmt+0x33b>
				if (altflag && (ch < ' ' || ch > '~'))
  8004202566:	83 7d d4 00          	cmpl   $0x0,-0x2c(%rbp)
  800420256a:	74 1e                	je     800420258a <vprintfmt+0x326>
  800420256c:	83 fb 1f             	cmp    $0x1f,%ebx
  800420256f:	7e 05                	jle    8004202576 <vprintfmt+0x312>
  8004202571:	83 fb 7e             	cmp    $0x7e,%ebx
  8004202574:	7e 14                	jle    800420258a <vprintfmt+0x326>
					putch('?', putdat);
  8004202576:	48 8b 45 a0          	mov    -0x60(%rbp),%rax
  800420257a:	48 8b 55 a8          	mov    -0x58(%rbp),%rdx
  800420257e:	48 89 c6             	mov    %rax,%rsi
  8004202581:	bf 3f 00 00 00       	mov    $0x3f,%edi
  8004202586:	ff d2                	callq  *%rdx
  8004202588:	eb 0f                	jmp    8004202599 <vprintfmt+0x335>
				else
					putch(ch, putdat);
  800420258a:	48 8b 45 a0          	mov    -0x60(%rbp),%rax
  800420258e:	48 8b 55 a8          	mov    -0x58(%rbp),%rdx
  8004202592:	48 89 c6             	mov    %rax,%rsi
  8004202595:	89 df                	mov    %ebx,%edi
  8004202597:	ff d2                	callq  *%rdx
			if ((p = va_arg(aq, char *)) == NULL)
				p = "(null)";
			if (width > 0 && padc != '-')
				for (width -= strnlen(p, precision); width > 0; width--)
					putch(padc, putdat);
			for (; (ch = *p++) != '\0' && (precision < 0 || --precision >= 0); width--)
  8004202599:	83 6d dc 01          	subl   $0x1,-0x24(%rbp)
  800420259d:	eb 01                	jmp    80042025a0 <vprintfmt+0x33c>
  800420259f:	90                   	nop
  80042025a0:	41 0f b6 04 24       	movzbl (%r12),%eax
  80042025a5:	0f be d8             	movsbl %al,%ebx
  80042025a8:	85 db                	test   %ebx,%ebx
  80042025aa:	0f 95 c0             	setne  %al
  80042025ad:	49 83 c4 01          	add    $0x1,%r12
  80042025b1:	84 c0                	test   %al,%al
  80042025b3:	74 28                	je     80042025dd <vprintfmt+0x379>
  80042025b5:	83 7d d8 00          	cmpl   $0x0,-0x28(%rbp)
  80042025b9:	78 ab                	js     8004202566 <vprintfmt+0x302>
  80042025bb:	83 6d d8 01          	subl   $0x1,-0x28(%rbp)
  80042025bf:	83 7d d8 00          	cmpl   $0x0,-0x28(%rbp)
  80042025c3:	79 a1                	jns    8004202566 <vprintfmt+0x302>
				if (altflag && (ch < ' ' || ch > '~'))
					putch('?', putdat);
				else
					putch(ch, putdat);
			for (; width > 0; width--)
  80042025c5:	eb 16                	jmp    80042025dd <vprintfmt+0x379>
				putch(' ', putdat);
  80042025c7:	48 8b 45 a0          	mov    -0x60(%rbp),%rax
  80042025cb:	48 8b 55 a8          	mov    -0x58(%rbp),%rdx
  80042025cf:	48 89 c6             	mov    %rax,%rsi
  80042025d2:	bf 20 00 00 00       	mov    $0x20,%edi
  80042025d7:	ff d2                	callq  *%rdx
			for (; (ch = *p++) != '\0' && (precision < 0 || --precision >= 0); width--)
				if (altflag && (ch < ' ' || ch > '~'))
					putch('?', putdat);
				else
					putch(ch, putdat);
			for (; width > 0; width--)
  80042025d9:	83 6d dc 01          	subl   $0x1,-0x24(%rbp)
  80042025dd:	83 7d dc 00          	cmpl   $0x0,-0x24(%rbp)
  80042025e1:	7f e4                	jg     80042025c7 <vprintfmt+0x363>
				putch(' ', putdat);
			break;
  80042025e3:	e9 90 01 00 00       	jmpq   8004202778 <vprintfmt+0x514>

		// (signed) decimal
		case 'd':
			num = getint(&aq, 3);
  80042025e8:	48 8d 45 b8          	lea    -0x48(%rbp),%rax
  80042025ec:	be 03 00 00 00       	mov    $0x3,%esi
  80042025f1:	48 89 c7             	mov    %rax,%rdi
  80042025f4:	48 b8 54 21 20 04 80 	movabs $0x8004202154,%rax
  80042025fb:	00 00 00 
  80042025fe:	ff d0                	callq  *%rax
  8004202600:	48 89 45 e8          	mov    %rax,-0x18(%rbp)
			if ((long long) num < 0) {
  8004202604:	48 8b 45 e8          	mov    -0x18(%rbp),%rax
  8004202608:	48 85 c0             	test   %rax,%rax
  800420260b:	79 1d                	jns    800420262a <vprintfmt+0x3c6>
				putch('-', putdat);
  800420260d:	48 8b 45 a0          	mov    -0x60(%rbp),%rax
  8004202611:	48 8b 55 a8          	mov    -0x58(%rbp),%rdx
  8004202615:	48 89 c6             	mov    %rax,%rsi
  8004202618:	bf 2d 00 00 00       	mov    $0x2d,%edi
  800420261d:	ff d2                	callq  *%rdx
				num = -(long long) num;
  800420261f:	48 8b 45 e8          	mov    -0x18(%rbp),%rax
  8004202623:	48 f7 d8             	neg    %rax
  8004202626:	48 89 45 e8          	mov    %rax,-0x18(%rbp)
			}
			base = 10;
  800420262a:	c7 45 e4 0a 00 00 00 	movl   $0xa,-0x1c(%rbp)
			goto number;
  8004202631:	e9 d5 00 00 00       	jmpq   800420270b <vprintfmt+0x4a7>

		// unsigned decimal
		case 'u':
			num = getuint(&aq, 3);
  8004202636:	48 8d 45 b8          	lea    -0x48(%rbp),%rax
  800420263a:	be 03 00 00 00       	mov    $0x3,%esi
  800420263f:	48 89 c7             	mov    %rax,%rdi
  8004202642:	48 b8 44 20 20 04 80 	movabs $0x8004202044,%rax
  8004202649:	00 00 00 
  800420264c:	ff d0                	callq  *%rax
  800420264e:	48 89 45 e8          	mov    %rax,-0x18(%rbp)
			base = 10;
  8004202652:	c7 45 e4 0a 00 00 00 	movl   $0xa,-0x1c(%rbp)
			goto number;
  8004202659:	e9 ad 00 00 00       	jmpq   800420270b <vprintfmt+0x4a7>
		// (unsigned) octal
		case 'o':
			// Gets the variable argument with type integer from the point which was processed last by va_arg
			// calls getuint which returns a long long value, which then calls printnum which prints based on
			// base value.
			num = getuint(&aq, 3);
  800420265e:	48 8d 45 b8          	lea    -0x48(%rbp),%rax
  8004202662:	be 03 00 00 00       	mov    $0x3,%esi
  8004202667:	48 89 c7             	mov    %rax,%rdi
  800420266a:	48 b8 44 20 20 04 80 	movabs $0x8004202044,%rax
  8004202671:	00 00 00 
  8004202674:	ff d0                	callq  *%rax
  8004202676:	48 89 45 e8          	mov    %rax,-0x18(%rbp)
			base = 8;
  800420267a:	c7 45 e4 08 00 00 00 	movl   $0x8,-0x1c(%rbp)
			goto number;
  8004202681:	e9 85 00 00 00       	jmpq   800420270b <vprintfmt+0x4a7>

		// pointer
		case 'p':
			putch('0', putdat);
  8004202686:	48 8b 45 a0          	mov    -0x60(%rbp),%rax
  800420268a:	48 8b 55 a8          	mov    -0x58(%rbp),%rdx
  800420268e:	48 89 c6             	mov    %rax,%rsi
  8004202691:	bf 30 00 00 00       	mov    $0x30,%edi
  8004202696:	ff d2                	callq  *%rdx
			putch('x', putdat);
  8004202698:	48 8b 45 a0          	mov    -0x60(%rbp),%rax
  800420269c:	48 8b 55 a8          	mov    -0x58(%rbp),%rdx
  80042026a0:	48 89 c6             	mov    %rax,%rsi
  80042026a3:	bf 78 00 00 00       	mov    $0x78,%edi
  80042026a8:	ff d2                	callq  *%rdx
			num = (unsigned long long)
				(uintptr_t) va_arg(aq, void *);
  80042026aa:	8b 45 b8             	mov    -0x48(%rbp),%eax
  80042026ad:	83 f8 30             	cmp    $0x30,%eax
  80042026b0:	73 17                	jae    80042026c9 <vprintfmt+0x465>
  80042026b2:	48 8b 55 c8          	mov    -0x38(%rbp),%rdx
  80042026b6:	8b 45 b8             	mov    -0x48(%rbp),%eax
  80042026b9:	89 c0                	mov    %eax,%eax
  80042026bb:	48 01 d0             	add    %rdx,%rax
  80042026be:	8b 55 b8             	mov    -0x48(%rbp),%edx
  80042026c1:	83 c2 08             	add    $0x8,%edx
  80042026c4:	89 55 b8             	mov    %edx,-0x48(%rbp)

		// pointer
		case 'p':
			putch('0', putdat);
			putch('x', putdat);
			num = (unsigned long long)
  80042026c7:	eb 0f                	jmp    80042026d8 <vprintfmt+0x474>
				(uintptr_t) va_arg(aq, void *);
  80042026c9:	48 8b 55 c0          	mov    -0x40(%rbp),%rdx
  80042026cd:	48 89 d0             	mov    %rdx,%rax
  80042026d0:	48 83 c2 08          	add    $0x8,%rdx
  80042026d4:	48 89 55 c0          	mov    %rdx,-0x40(%rbp)
  80042026d8:	48 8b 00             	mov    (%rax),%rax

		// pointer
		case 'p':
			putch('0', putdat);
			putch('x', putdat);
			num = (unsigned long long)
  80042026db:	48 89 45 e8          	mov    %rax,-0x18(%rbp)
				(uintptr_t) va_arg(aq, void *);
			base = 16;
  80042026df:	c7 45 e4 10 00 00 00 	movl   $0x10,-0x1c(%rbp)
			goto number;
  80042026e6:	eb 23                	jmp    800420270b <vprintfmt+0x4a7>

		// (unsigned) hexadecimal
		case 'x':
			num = getuint(&aq, 3);
  80042026e8:	48 8d 45 b8          	lea    -0x48(%rbp),%rax
  80042026ec:	be 03 00 00 00       	mov    $0x3,%esi
  80042026f1:	48 89 c7             	mov    %rax,%rdi
  80042026f4:	48 b8 44 20 20 04 80 	movabs $0x8004202044,%rax
  80042026fb:	00 00 00 
  80042026fe:	ff d0                	callq  *%rax
  8004202700:	48 89 45 e8          	mov    %rax,-0x18(%rbp)
			base = 16;
  8004202704:	c7 45 e4 10 00 00 00 	movl   $0x10,-0x1c(%rbp)
		number:
			printnum(putch, putdat, num, base, width, padc);
  800420270b:	44 0f be 45 d3       	movsbl -0x2d(%rbp),%r8d
  8004202710:	8b 4d e4             	mov    -0x1c(%rbp),%ecx
  8004202713:	8b 7d dc             	mov    -0x24(%rbp),%edi
  8004202716:	48 8b 55 e8          	mov    -0x18(%rbp),%rdx
  800420271a:	48 8b 75 a0          	mov    -0x60(%rbp),%rsi
  800420271e:	48 8b 45 a8          	mov    -0x58(%rbp),%rax
  8004202722:	45 89 c1             	mov    %r8d,%r9d
  8004202725:	41 89 f8             	mov    %edi,%r8d
  8004202728:	48 89 c7             	mov    %rax,%rdi
  800420272b:	48 b8 8c 1f 20 04 80 	movabs $0x8004201f8c,%rax
  8004202732:	00 00 00 
  8004202735:	ff d0                	callq  *%rax
			break;
  8004202737:	eb 3f                	jmp    8004202778 <vprintfmt+0x514>

		// escaped '%' character
		case '%':
			putch(ch, putdat);
  8004202739:	48 8b 45 a0          	mov    -0x60(%rbp),%rax
  800420273d:	48 8b 55 a8          	mov    -0x58(%rbp),%rdx
  8004202741:	48 89 c6             	mov    %rax,%rsi
  8004202744:	89 df                	mov    %ebx,%edi
  8004202746:	ff d2                	callq  *%rdx
			break;
  8004202748:	eb 2e                	jmp    8004202778 <vprintfmt+0x514>

		// unrecognized escape sequence - just print it literally
		default:
			putch('%', putdat);
  800420274a:	48 8b 45 a0          	mov    -0x60(%rbp),%rax
  800420274e:	48 8b 55 a8          	mov    -0x58(%rbp),%rdx
  8004202752:	48 89 c6             	mov    %rax,%rsi
  8004202755:	bf 25 00 00 00       	mov    $0x25,%edi
  800420275a:	ff d2                	callq  *%rdx
			for (fmt--; fmt[-1] != '%'; fmt--)
  800420275c:	48 83 6d 98 01       	subq   $0x1,-0x68(%rbp)
  8004202761:	eb 05                	jmp    8004202768 <vprintfmt+0x504>
  8004202763:	48 83 6d 98 01       	subq   $0x1,-0x68(%rbp)
  8004202768:	48 8b 45 98          	mov    -0x68(%rbp),%rax
  800420276c:	48 83 e8 01          	sub    $0x1,%rax
  8004202770:	0f b6 00             	movzbl (%rax),%eax
  8004202773:	3c 25                	cmp    $0x25,%al
  8004202775:	75 ec                	jne    8004202763 <vprintfmt+0x4ff>
				/* do nothing */;
			break;
  8004202777:	90                   	nop
		}
	}
  8004202778:	90                   	nop
	int base, lflag, width, precision, altflag;
	char padc;
	va_list aq;
	va_copy(aq,ap);
	while (1) {
		while ((ch = *(unsigned char *) fmt++) != '%') {
  8004202779:	e9 38 fb ff ff       	jmpq   80042022b6 <vprintfmt+0x52>
			if (ch == '\0')
				return;
  800420277e:	90                   	nop
				/* do nothing */;
			break;
		}
	}
    va_end(aq);
}
  800420277f:	48 83 c4 60          	add    $0x60,%rsp
  8004202783:	5b                   	pop    %rbx
  8004202784:	41 5c                	pop    %r12
  8004202786:	5d                   	pop    %rbp
  8004202787:	c3                   	retq   

0000008004202788 <printfmt>:

void
printfmt(void (*putch)(int, void*), void *putdat, const char *fmt, ...)
{
  8004202788:	55                   	push   %rbp
  8004202789:	48 89 e5             	mov    %rsp,%rbp
  800420278c:	48 81 ec f0 00 00 00 	sub    $0xf0,%rsp
  8004202793:	48 89 bd 28 ff ff ff 	mov    %rdi,-0xd8(%rbp)
  800420279a:	48 89 b5 20 ff ff ff 	mov    %rsi,-0xe0(%rbp)
  80042027a1:	48 89 8d 68 ff ff ff 	mov    %rcx,-0x98(%rbp)
  80042027a8:	4c 89 85 70 ff ff ff 	mov    %r8,-0x90(%rbp)
  80042027af:	4c 89 8d 78 ff ff ff 	mov    %r9,-0x88(%rbp)
  80042027b6:	84 c0                	test   %al,%al
  80042027b8:	74 20                	je     80042027da <printfmt+0x52>
  80042027ba:	0f 29 45 80          	movaps %xmm0,-0x80(%rbp)
  80042027be:	0f 29 4d 90          	movaps %xmm1,-0x70(%rbp)
  80042027c2:	0f 29 55 a0          	movaps %xmm2,-0x60(%rbp)
  80042027c6:	0f 29 5d b0          	movaps %xmm3,-0x50(%rbp)
  80042027ca:	0f 29 65 c0          	movaps %xmm4,-0x40(%rbp)
  80042027ce:	0f 29 6d d0          	movaps %xmm5,-0x30(%rbp)
  80042027d2:	0f 29 75 e0          	movaps %xmm6,-0x20(%rbp)
  80042027d6:	0f 29 7d f0          	movaps %xmm7,-0x10(%rbp)
  80042027da:	48 89 95 18 ff ff ff 	mov    %rdx,-0xe8(%rbp)
	va_list ap;

	va_start(ap, fmt);
  80042027e1:	c7 85 38 ff ff ff 18 	movl   $0x18,-0xc8(%rbp)
  80042027e8:	00 00 00 
  80042027eb:	c7 85 3c ff ff ff 30 	movl   $0x30,-0xc4(%rbp)
  80042027f2:	00 00 00 
  80042027f5:	48 8d 45 10          	lea    0x10(%rbp),%rax
  80042027f9:	48 89 85 40 ff ff ff 	mov    %rax,-0xc0(%rbp)
  8004202800:	48 8d 85 50 ff ff ff 	lea    -0xb0(%rbp),%rax
  8004202807:	48 89 85 48 ff ff ff 	mov    %rax,-0xb8(%rbp)
	vprintfmt(putch, putdat, fmt, ap);
  800420280e:	48 8d 8d 38 ff ff ff 	lea    -0xc8(%rbp),%rcx
  8004202815:	48 8b 95 18 ff ff ff 	mov    -0xe8(%rbp),%rdx
  800420281c:	48 8b b5 20 ff ff ff 	mov    -0xe0(%rbp),%rsi
  8004202823:	48 8b 85 28 ff ff ff 	mov    -0xd8(%rbp),%rax
  800420282a:	48 89 c7             	mov    %rax,%rdi
  800420282d:	48 b8 64 22 20 04 80 	movabs $0x8004202264,%rax
  8004202834:	00 00 00 
  8004202837:	ff d0                	callq  *%rax
	va_end(ap);
}
  8004202839:	c9                   	leaveq 
  800420283a:	c3                   	retq   

000000800420283b <sprintputch>:
	int cnt;
};

static void
sprintputch(int ch, struct sprintbuf *b)
{
  800420283b:	55                   	push   %rbp
  800420283c:	48 89 e5             	mov    %rsp,%rbp
  800420283f:	48 83 ec 10          	sub    $0x10,%rsp
  8004202843:	89 7d fc             	mov    %edi,-0x4(%rbp)
  8004202846:	48 89 75 f0          	mov    %rsi,-0x10(%rbp)
	b->cnt++;
  800420284a:	48 8b 45 f0          	mov    -0x10(%rbp),%rax
  800420284e:	8b 40 10             	mov    0x10(%rax),%eax
  8004202851:	8d 50 01             	lea    0x1(%rax),%edx
  8004202854:	48 8b 45 f0          	mov    -0x10(%rbp),%rax
  8004202858:	89 50 10             	mov    %edx,0x10(%rax)
	if (b->buf < b->ebuf)
  800420285b:	48 8b 45 f0          	mov    -0x10(%rbp),%rax
  800420285f:	48 8b 10             	mov    (%rax),%rdx
  8004202862:	48 8b 45 f0          	mov    -0x10(%rbp),%rax
  8004202866:	48 8b 40 08          	mov    0x8(%rax),%rax
  800420286a:	48 39 c2             	cmp    %rax,%rdx
  800420286d:	73 17                	jae    8004202886 <sprintputch+0x4b>
		*b->buf++ = ch;
  800420286f:	48 8b 45 f0          	mov    -0x10(%rbp),%rax
  8004202873:	48 8b 00             	mov    (%rax),%rax
  8004202876:	8b 55 fc             	mov    -0x4(%rbp),%edx
  8004202879:	88 10                	mov    %dl,(%rax)
  800420287b:	48 8d 50 01          	lea    0x1(%rax),%rdx
  800420287f:	48 8b 45 f0          	mov    -0x10(%rbp),%rax
  8004202883:	48 89 10             	mov    %rdx,(%rax)
}
  8004202886:	c9                   	leaveq 
  8004202887:	c3                   	retq   

0000008004202888 <vsnprintf>:

int
vsnprintf(char *buf, int n, const char *fmt, va_list ap)
{
  8004202888:	55                   	push   %rbp
  8004202889:	48 89 e5             	mov    %rsp,%rbp
  800420288c:	48 83 ec 50          	sub    $0x50,%rsp
  8004202890:	48 89 7d c8          	mov    %rdi,-0x38(%rbp)
  8004202894:	89 75 c4             	mov    %esi,-0x3c(%rbp)
  8004202897:	48 89 55 b8          	mov    %rdx,-0x48(%rbp)
  800420289b:	48 89 4d b0          	mov    %rcx,-0x50(%rbp)
	va_list aq;
	va_copy(aq,ap);
  800420289f:	48 8d 45 e8          	lea    -0x18(%rbp),%rax
  80042028a3:	48 8b 55 b0          	mov    -0x50(%rbp),%rdx
  80042028a7:	48 8b 0a             	mov    (%rdx),%rcx
  80042028aa:	48 89 08             	mov    %rcx,(%rax)
  80042028ad:	48 8b 4a 08          	mov    0x8(%rdx),%rcx
  80042028b1:	48 89 48 08          	mov    %rcx,0x8(%rax)
  80042028b5:	48 8b 52 10          	mov    0x10(%rdx),%rdx
  80042028b9:	48 89 50 10          	mov    %rdx,0x10(%rax)
	struct sprintbuf b = {buf, buf+n-1, 0};
  80042028bd:	48 8b 45 c8          	mov    -0x38(%rbp),%rax
  80042028c1:	48 89 45 d0          	mov    %rax,-0x30(%rbp)
  80042028c5:	8b 45 c4             	mov    -0x3c(%rbp),%eax
  80042028c8:	48 98                	cltq   
  80042028ca:	48 83 e8 01          	sub    $0x1,%rax
  80042028ce:	48 03 45 c8          	add    -0x38(%rbp),%rax
  80042028d2:	48 89 45 d8          	mov    %rax,-0x28(%rbp)
  80042028d6:	c7 45 e0 00 00 00 00 	movl   $0x0,-0x20(%rbp)

	if (buf == NULL || n < 1)
  80042028dd:	48 83 7d c8 00       	cmpq   $0x0,-0x38(%rbp)
  80042028e2:	74 06                	je     80042028ea <vsnprintf+0x62>
  80042028e4:	83 7d c4 00          	cmpl   $0x0,-0x3c(%rbp)
  80042028e8:	7f 07                	jg     80042028f1 <vsnprintf+0x69>
		return -E_INVAL;
  80042028ea:	b8 fd ff ff ff       	mov    $0xfffffffd,%eax
  80042028ef:	eb 2f                	jmp    8004202920 <vsnprintf+0x98>

	// print the string to the buffer
	vprintfmt((void*)sprintputch, &b, fmt, aq);
  80042028f1:	48 8d 4d e8          	lea    -0x18(%rbp),%rcx
  80042028f5:	48 8b 55 b8          	mov    -0x48(%rbp),%rdx
  80042028f9:	48 8d 45 d0          	lea    -0x30(%rbp),%rax
  80042028fd:	48 89 c6             	mov    %rax,%rsi
  8004202900:	48 bf 3b 28 20 04 80 	movabs $0x800420283b,%rdi
  8004202907:	00 00 00 
  800420290a:	48 b8 64 22 20 04 80 	movabs $0x8004202264,%rax
  8004202911:	00 00 00 
  8004202914:	ff d0                	callq  *%rax
	va_end(aq);
	// null terminate the buffer
	*b.buf = '\0';
  8004202916:	48 8b 45 d0          	mov    -0x30(%rbp),%rax
  800420291a:	c6 00 00             	movb   $0x0,(%rax)

	return b.cnt;
  800420291d:	8b 45 e0             	mov    -0x20(%rbp),%eax
}
  8004202920:	c9                   	leaveq 
  8004202921:	c3                   	retq   

0000008004202922 <snprintf>:

int
snprintf(char *buf, int n, const char *fmt, ...)
{
  8004202922:	55                   	push   %rbp
  8004202923:	48 89 e5             	mov    %rsp,%rbp
  8004202926:	48 81 ec 10 01 00 00 	sub    $0x110,%rsp
  800420292d:	48 89 bd 08 ff ff ff 	mov    %rdi,-0xf8(%rbp)
  8004202934:	89 b5 04 ff ff ff    	mov    %esi,-0xfc(%rbp)
  800420293a:	48 89 8d 68 ff ff ff 	mov    %rcx,-0x98(%rbp)
  8004202941:	4c 89 85 70 ff ff ff 	mov    %r8,-0x90(%rbp)
  8004202948:	4c 89 8d 78 ff ff ff 	mov    %r9,-0x88(%rbp)
  800420294f:	84 c0                	test   %al,%al
  8004202951:	74 20                	je     8004202973 <snprintf+0x51>
  8004202953:	0f 29 45 80          	movaps %xmm0,-0x80(%rbp)
  8004202957:	0f 29 4d 90          	movaps %xmm1,-0x70(%rbp)
  800420295b:	0f 29 55 a0          	movaps %xmm2,-0x60(%rbp)
  800420295f:	0f 29 5d b0          	movaps %xmm3,-0x50(%rbp)
  8004202963:	0f 29 65 c0          	movaps %xmm4,-0x40(%rbp)
  8004202967:	0f 29 6d d0          	movaps %xmm5,-0x30(%rbp)
  800420296b:	0f 29 75 e0          	movaps %xmm6,-0x20(%rbp)
  800420296f:	0f 29 7d f0          	movaps %xmm7,-0x10(%rbp)
  8004202973:	48 89 95 f8 fe ff ff 	mov    %rdx,-0x108(%rbp)
	va_list ap;
	int rc;
	va_list aq;
	va_start(ap, fmt);
  800420297a:	c7 85 30 ff ff ff 18 	movl   $0x18,-0xd0(%rbp)
  8004202981:	00 00 00 
  8004202984:	c7 85 34 ff ff ff 30 	movl   $0x30,-0xcc(%rbp)
  800420298b:	00 00 00 
  800420298e:	48 8d 45 10          	lea    0x10(%rbp),%rax
  8004202992:	48 89 85 38 ff ff ff 	mov    %rax,-0xc8(%rbp)
  8004202999:	48 8d 85 50 ff ff ff 	lea    -0xb0(%rbp),%rax
  80042029a0:	48 89 85 40 ff ff ff 	mov    %rax,-0xc0(%rbp)
	va_copy(aq,ap);
  80042029a7:	48 8d 85 18 ff ff ff 	lea    -0xe8(%rbp),%rax
  80042029ae:	48 8d 95 30 ff ff ff 	lea    -0xd0(%rbp),%rdx
  80042029b5:	48 8b 0a             	mov    (%rdx),%rcx
  80042029b8:	48 89 08             	mov    %rcx,(%rax)
  80042029bb:	48 8b 4a 08          	mov    0x8(%rdx),%rcx
  80042029bf:	48 89 48 08          	mov    %rcx,0x8(%rax)
  80042029c3:	48 8b 52 10          	mov    0x10(%rdx),%rdx
  80042029c7:	48 89 50 10          	mov    %rdx,0x10(%rax)
	rc = vsnprintf(buf, n, fmt, aq);
  80042029cb:	48 8d 8d 18 ff ff ff 	lea    -0xe8(%rbp),%rcx
  80042029d2:	48 8b 95 f8 fe ff ff 	mov    -0x108(%rbp),%rdx
  80042029d9:	8b b5 04 ff ff ff    	mov    -0xfc(%rbp),%esi
  80042029df:	48 8b 85 08 ff ff ff 	mov    -0xf8(%rbp),%rax
  80042029e6:	48 89 c7             	mov    %rax,%rdi
  80042029e9:	48 b8 88 28 20 04 80 	movabs $0x8004202888,%rax
  80042029f0:	00 00 00 
  80042029f3:	ff d0                	callq  *%rax
  80042029f5:	89 85 4c ff ff ff    	mov    %eax,-0xb4(%rbp)
	va_end(aq);

	return rc;
  80042029fb:	8b 85 4c ff ff ff    	mov    -0xb4(%rbp),%eax
}
  8004202a01:	c9                   	leaveq 
  8004202a02:	c3                   	retq   
	...

0000008004202a04 <readline>:
#define BUFLEN 1024
static char buf[BUFLEN];

char *
readline(const char *prompt)
{
  8004202a04:	55                   	push   %rbp
  8004202a05:	48 89 e5             	mov    %rsp,%rbp
  8004202a08:	48 83 ec 20          	sub    $0x20,%rsp
  8004202a0c:	48 89 7d e8          	mov    %rdi,-0x18(%rbp)
	int i, c, echoing;

	if (prompt != NULL)
  8004202a10:	48 83 7d e8 00       	cmpq   $0x0,-0x18(%rbp)
  8004202a15:	74 22                	je     8004202a39 <readline+0x35>
		cprintf("%s", prompt);
  8004202a17:	48 8b 45 e8          	mov    -0x18(%rbp),%rax
  8004202a1b:	48 89 c6             	mov    %rax,%rsi
  8004202a1e:	48 bf 98 9d 20 04 80 	movabs $0x8004209d98,%rdi
  8004202a25:	00 00 00 
  8004202a28:	b8 00 00 00 00       	mov    $0x0,%eax
  8004202a2d:	48 ba 22 16 20 04 80 	movabs $0x8004201622,%rdx
  8004202a34:	00 00 00 
  8004202a37:	ff d2                	callq  *%rdx

	i = 0;
  8004202a39:	c7 45 fc 00 00 00 00 	movl   $0x0,-0x4(%rbp)
	echoing = iscons(0);
  8004202a40:	bf 00 00 00 00       	mov    $0x0,%edi
  8004202a45:	48 b8 27 0f 20 04 80 	movabs $0x8004200f27,%rax
  8004202a4c:	00 00 00 
  8004202a4f:	ff d0                	callq  *%rax
  8004202a51:	89 45 f8             	mov    %eax,-0x8(%rbp)
  8004202a54:	eb 01                	jmp    8004202a57 <readline+0x53>
			if (echoing)
				cputchar('\n');
			buf[i] = 0;
			return buf;
		}
	}
  8004202a56:	90                   	nop
		cprintf("%s", prompt);

	i = 0;
	echoing = iscons(0);
	while (1) {
		c = getchar();
  8004202a57:	48 b8 05 0f 20 04 80 	movabs $0x8004200f05,%rax
  8004202a5e:	00 00 00 
  8004202a61:	ff d0                	callq  *%rax
  8004202a63:	89 45 f4             	mov    %eax,-0xc(%rbp)
		if (c < 0) {
  8004202a66:	83 7d f4 00          	cmpl   $0x0,-0xc(%rbp)
  8004202a6a:	79 2a                	jns    8004202a96 <readline+0x92>
			cprintf("read error: %e\n", c);
  8004202a6c:	8b 45 f4             	mov    -0xc(%rbp),%eax
  8004202a6f:	89 c6                	mov    %eax,%esi
  8004202a71:	48 bf 9b 9d 20 04 80 	movabs $0x8004209d9b,%rdi
  8004202a78:	00 00 00 
  8004202a7b:	b8 00 00 00 00       	mov    $0x0,%eax
  8004202a80:	48 ba 22 16 20 04 80 	movabs $0x8004201622,%rdx
  8004202a87:	00 00 00 
  8004202a8a:	ff d2                	callq  *%rdx
			return NULL;
  8004202a8c:	b8 00 00 00 00       	mov    $0x0,%eax
  8004202a91:	e9 c0 00 00 00       	jmpq   8004202b56 <readline+0x152>
		} else if ((c == '\b' || c == '\x7f') && i > 0) {
  8004202a96:	83 7d f4 08          	cmpl   $0x8,-0xc(%rbp)
  8004202a9a:	74 06                	je     8004202aa2 <readline+0x9e>
  8004202a9c:	83 7d f4 7f          	cmpl   $0x7f,-0xc(%rbp)
  8004202aa0:	75 26                	jne    8004202ac8 <readline+0xc4>
  8004202aa2:	83 7d fc 00          	cmpl   $0x0,-0x4(%rbp)
  8004202aa6:	7e 20                	jle    8004202ac8 <readline+0xc4>
			if (echoing)
  8004202aa8:	83 7d f8 00          	cmpl   $0x0,-0x8(%rbp)
  8004202aac:	74 11                	je     8004202abf <readline+0xbb>
				cputchar('\b');
  8004202aae:	bf 08 00 00 00       	mov    $0x8,%edi
  8004202ab3:	48 b8 e7 0e 20 04 80 	movabs $0x8004200ee7,%rax
  8004202aba:	00 00 00 
  8004202abd:	ff d0                	callq  *%rax
			i--;
  8004202abf:	83 6d fc 01          	subl   $0x1,-0x4(%rbp)
  8004202ac3:	e9 89 00 00 00       	jmpq   8004202b51 <readline+0x14d>
		} else if (c >= ' ' && i < BUFLEN-1) {
  8004202ac8:	83 7d f4 1f          	cmpl   $0x1f,-0xc(%rbp)
  8004202acc:	7e 3d                	jle    8004202b0b <readline+0x107>
  8004202ace:	81 7d fc fe 03 00 00 	cmpl   $0x3fe,-0x4(%rbp)
  8004202ad5:	7f 34                	jg     8004202b0b <readline+0x107>
			if (echoing)
  8004202ad7:	83 7d f8 00          	cmpl   $0x0,-0x8(%rbp)
  8004202adb:	74 11                	je     8004202aee <readline+0xea>
				cputchar(c);
  8004202add:	8b 45 f4             	mov    -0xc(%rbp),%eax
  8004202ae0:	89 c7                	mov    %eax,%edi
  8004202ae2:	48 b8 e7 0e 20 04 80 	movabs $0x8004200ee7,%rax
  8004202ae9:	00 00 00 
  8004202aec:	ff d0                	callq  *%rax
			buf[i++] = c;
  8004202aee:	8b 45 f4             	mov    -0xc(%rbp),%eax
  8004202af1:	89 c1                	mov    %eax,%ecx
  8004202af3:	48 ba 00 b9 21 04 80 	movabs $0x800421b900,%rdx
  8004202afa:	00 00 00 
  8004202afd:	8b 45 fc             	mov    -0x4(%rbp),%eax
  8004202b00:	48 98                	cltq   
  8004202b02:	88 0c 02             	mov    %cl,(%rdx,%rax,1)
  8004202b05:	83 45 fc 01          	addl   $0x1,-0x4(%rbp)
  8004202b09:	eb 46                	jmp    8004202b51 <readline+0x14d>
		} else if (c == '\n' || c == '\r') {
  8004202b0b:	83 7d f4 0a          	cmpl   $0xa,-0xc(%rbp)
  8004202b0f:	74 0a                	je     8004202b1b <readline+0x117>
  8004202b11:	83 7d f4 0d          	cmpl   $0xd,-0xc(%rbp)
  8004202b15:	0f 85 3b ff ff ff    	jne    8004202a56 <readline+0x52>
			if (echoing)
  8004202b1b:	83 7d f8 00          	cmpl   $0x0,-0x8(%rbp)
  8004202b1f:	74 11                	je     8004202b32 <readline+0x12e>
				cputchar('\n');
  8004202b21:	bf 0a 00 00 00       	mov    $0xa,%edi
  8004202b26:	48 b8 e7 0e 20 04 80 	movabs $0x8004200ee7,%rax
  8004202b2d:	00 00 00 
  8004202b30:	ff d0                	callq  *%rax
			buf[i] = 0;
  8004202b32:	48 ba 00 b9 21 04 80 	movabs $0x800421b900,%rdx
  8004202b39:	00 00 00 
  8004202b3c:	8b 45 fc             	mov    -0x4(%rbp),%eax
  8004202b3f:	48 98                	cltq   
  8004202b41:	c6 04 02 00          	movb   $0x0,(%rdx,%rax,1)
			return buf;
  8004202b45:	48 b8 00 b9 21 04 80 	movabs $0x800421b900,%rax
  8004202b4c:	00 00 00 
  8004202b4f:	eb 05                	jmp    8004202b56 <readline+0x152>
		}
	}
  8004202b51:	e9 00 ff ff ff       	jmpq   8004202a56 <readline+0x52>
}
  8004202b56:	c9                   	leaveq 
  8004202b57:	c3                   	retq   

0000008004202b58 <strlen>:
// Primespipe runs 3x faster this way.
#define ASM 1

int
strlen(const char *s)
{
  8004202b58:	55                   	push   %rbp
  8004202b59:	48 89 e5             	mov    %rsp,%rbp
  8004202b5c:	48 83 ec 18          	sub    $0x18,%rsp
  8004202b60:	48 89 7d e8          	mov    %rdi,-0x18(%rbp)
	int n;

	for (n = 0; *s != '\0'; s++)
  8004202b64:	c7 45 fc 00 00 00 00 	movl   $0x0,-0x4(%rbp)
  8004202b6b:	eb 09                	jmp    8004202b76 <strlen+0x1e>
		n++;
  8004202b6d:	83 45 fc 01          	addl   $0x1,-0x4(%rbp)
int
strlen(const char *s)
{
	int n;

	for (n = 0; *s != '\0'; s++)
  8004202b71:	48 83 45 e8 01       	addq   $0x1,-0x18(%rbp)
  8004202b76:	48 8b 45 e8          	mov    -0x18(%rbp),%rax
  8004202b7a:	0f b6 00             	movzbl (%rax),%eax
  8004202b7d:	84 c0                	test   %al,%al
  8004202b7f:	75 ec                	jne    8004202b6d <strlen+0x15>
		n++;
	return n;
  8004202b81:	8b 45 fc             	mov    -0x4(%rbp),%eax
}
  8004202b84:	c9                   	leaveq 
  8004202b85:	c3                   	retq   

0000008004202b86 <strnlen>:

int
strnlen(const char *s, size_t size)
{
  8004202b86:	55                   	push   %rbp
  8004202b87:	48 89 e5             	mov    %rsp,%rbp
  8004202b8a:	48 83 ec 20          	sub    $0x20,%rsp
  8004202b8e:	48 89 7d e8          	mov    %rdi,-0x18(%rbp)
  8004202b92:	48 89 75 e0          	mov    %rsi,-0x20(%rbp)
	int n;

	for (n = 0; size > 0 && *s != '\0'; s++, size--)
  8004202b96:	c7 45 fc 00 00 00 00 	movl   $0x0,-0x4(%rbp)
  8004202b9d:	eb 0e                	jmp    8004202bad <strnlen+0x27>
		n++;
  8004202b9f:	83 45 fc 01          	addl   $0x1,-0x4(%rbp)
int
strnlen(const char *s, size_t size)
{
	int n;

	for (n = 0; size > 0 && *s != '\0'; s++, size--)
  8004202ba3:	48 83 45 e8 01       	addq   $0x1,-0x18(%rbp)
  8004202ba8:	48 83 6d e0 01       	subq   $0x1,-0x20(%rbp)
  8004202bad:	48 83 7d e0 00       	cmpq   $0x0,-0x20(%rbp)
  8004202bb2:	74 0b                	je     8004202bbf <strnlen+0x39>
  8004202bb4:	48 8b 45 e8          	mov    -0x18(%rbp),%rax
  8004202bb8:	0f b6 00             	movzbl (%rax),%eax
  8004202bbb:	84 c0                	test   %al,%al
  8004202bbd:	75 e0                	jne    8004202b9f <strnlen+0x19>
		n++;
	return n;
  8004202bbf:	8b 45 fc             	mov    -0x4(%rbp),%eax
}
  8004202bc2:	c9                   	leaveq 
  8004202bc3:	c3                   	retq   

0000008004202bc4 <strcpy>:

char *
strcpy(char *dst, const char *src)
{
  8004202bc4:	55                   	push   %rbp
  8004202bc5:	48 89 e5             	mov    %rsp,%rbp
  8004202bc8:	48 83 ec 20          	sub    $0x20,%rsp
  8004202bcc:	48 89 7d e8          	mov    %rdi,-0x18(%rbp)
  8004202bd0:	48 89 75 e0          	mov    %rsi,-0x20(%rbp)
	char *ret;

	ret = dst;
  8004202bd4:	48 8b 45 e8          	mov    -0x18(%rbp),%rax
  8004202bd8:	48 89 45 f8          	mov    %rax,-0x8(%rbp)
	while ((*dst++ = *src++) != '\0')
  8004202bdc:	90                   	nop
  8004202bdd:	48 8b 45 e0          	mov    -0x20(%rbp),%rax
  8004202be1:	0f b6 10             	movzbl (%rax),%edx
  8004202be4:	48 8b 45 e8          	mov    -0x18(%rbp),%rax
  8004202be8:	88 10                	mov    %dl,(%rax)
  8004202bea:	48 8b 45 e8          	mov    -0x18(%rbp),%rax
  8004202bee:	0f b6 00             	movzbl (%rax),%eax
  8004202bf1:	84 c0                	test   %al,%al
  8004202bf3:	0f 95 c0             	setne  %al
  8004202bf6:	48 83 45 e8 01       	addq   $0x1,-0x18(%rbp)
  8004202bfb:	48 83 45 e0 01       	addq   $0x1,-0x20(%rbp)
  8004202c00:	84 c0                	test   %al,%al
  8004202c02:	75 d9                	jne    8004202bdd <strcpy+0x19>
		/* do nothing */;
	return ret;
  8004202c04:	48 8b 45 f8          	mov    -0x8(%rbp),%rax
}
  8004202c08:	c9                   	leaveq 
  8004202c09:	c3                   	retq   

0000008004202c0a <strcat>:

char *
strcat(char *dst, const char *src)
{
  8004202c0a:	55                   	push   %rbp
  8004202c0b:	48 89 e5             	mov    %rsp,%rbp
  8004202c0e:	48 83 ec 20          	sub    $0x20,%rsp
  8004202c12:	48 89 7d e8          	mov    %rdi,-0x18(%rbp)
  8004202c16:	48 89 75 e0          	mov    %rsi,-0x20(%rbp)
	int len = strlen(dst);
  8004202c1a:	48 8b 45 e8          	mov    -0x18(%rbp),%rax
  8004202c1e:	48 89 c7             	mov    %rax,%rdi
  8004202c21:	48 b8 58 2b 20 04 80 	movabs $0x8004202b58,%rax
  8004202c28:	00 00 00 
  8004202c2b:	ff d0                	callq  *%rax
  8004202c2d:	89 45 fc             	mov    %eax,-0x4(%rbp)
	strcpy(dst + len, src);
  8004202c30:	8b 45 fc             	mov    -0x4(%rbp),%eax
  8004202c33:	48 98                	cltq   
  8004202c35:	48 03 45 e8          	add    -0x18(%rbp),%rax
  8004202c39:	48 8b 55 e0          	mov    -0x20(%rbp),%rdx
  8004202c3d:	48 89 d6             	mov    %rdx,%rsi
  8004202c40:	48 89 c7             	mov    %rax,%rdi
  8004202c43:	48 b8 c4 2b 20 04 80 	movabs $0x8004202bc4,%rax
  8004202c4a:	00 00 00 
  8004202c4d:	ff d0                	callq  *%rax
	return dst;
  8004202c4f:	48 8b 45 e8          	mov    -0x18(%rbp),%rax
}
  8004202c53:	c9                   	leaveq 
  8004202c54:	c3                   	retq   

0000008004202c55 <strncpy>:

char *
strncpy(char *dst, const char *src, size_t size) {
  8004202c55:	55                   	push   %rbp
  8004202c56:	48 89 e5             	mov    %rsp,%rbp
  8004202c59:	48 83 ec 28          	sub    $0x28,%rsp
  8004202c5d:	48 89 7d e8          	mov    %rdi,-0x18(%rbp)
  8004202c61:	48 89 75 e0          	mov    %rsi,-0x20(%rbp)
  8004202c65:	48 89 55 d8          	mov    %rdx,-0x28(%rbp)
	size_t i;
	char *ret;

	ret = dst;
  8004202c69:	48 8b 45 e8          	mov    -0x18(%rbp),%rax
  8004202c6d:	48 89 45 f0          	mov    %rax,-0x10(%rbp)
	for (i = 0; i < size; i++) {
  8004202c71:	48 c7 45 f8 00 00 00 	movq   $0x0,-0x8(%rbp)
  8004202c78:	00 
  8004202c79:	eb 27                	jmp    8004202ca2 <strncpy+0x4d>
		*dst++ = *src;
  8004202c7b:	48 8b 45 e0          	mov    -0x20(%rbp),%rax
  8004202c7f:	0f b6 10             	movzbl (%rax),%edx
  8004202c82:	48 8b 45 e8          	mov    -0x18(%rbp),%rax
  8004202c86:	88 10                	mov    %dl,(%rax)
  8004202c88:	48 83 45 e8 01       	addq   $0x1,-0x18(%rbp)
		// If strlen(src) < size, null-pad 'dst' out to 'size' chars
		if (*src != '\0')
  8004202c8d:	48 8b 45 e0          	mov    -0x20(%rbp),%rax
  8004202c91:	0f b6 00             	movzbl (%rax),%eax
  8004202c94:	84 c0                	test   %al,%al
  8004202c96:	74 05                	je     8004202c9d <strncpy+0x48>
			src++;
  8004202c98:	48 83 45 e0 01       	addq   $0x1,-0x20(%rbp)
strncpy(char *dst, const char *src, size_t size) {
	size_t i;
	char *ret;

	ret = dst;
	for (i = 0; i < size; i++) {
  8004202c9d:	48 83 45 f8 01       	addq   $0x1,-0x8(%rbp)
  8004202ca2:	48 8b 45 f8          	mov    -0x8(%rbp),%rax
  8004202ca6:	48 3b 45 d8          	cmp    -0x28(%rbp),%rax
  8004202caa:	72 cf                	jb     8004202c7b <strncpy+0x26>
		*dst++ = *src;
		// If strlen(src) < size, null-pad 'dst' out to 'size' chars
		if (*src != '\0')
			src++;
	}
	return ret;
  8004202cac:	48 8b 45 f0          	mov    -0x10(%rbp),%rax
}
  8004202cb0:	c9                   	leaveq 
  8004202cb1:	c3                   	retq   

0000008004202cb2 <strlcpy>:

size_t
strlcpy(char *dst, const char *src, size_t size)
{
  8004202cb2:	55                   	push   %rbp
  8004202cb3:	48 89 e5             	mov    %rsp,%rbp
  8004202cb6:	48 83 ec 28          	sub    $0x28,%rsp
  8004202cba:	48 89 7d e8          	mov    %rdi,-0x18(%rbp)
  8004202cbe:	48 89 75 e0          	mov    %rsi,-0x20(%rbp)
  8004202cc2:	48 89 55 d8          	mov    %rdx,-0x28(%rbp)
	char *dst_in;

	dst_in = dst;
  8004202cc6:	48 8b 45 e8          	mov    -0x18(%rbp),%rax
  8004202cca:	48 89 45 f8          	mov    %rax,-0x8(%rbp)
	if (size > 0) {
  8004202cce:	48 83 7d d8 00       	cmpq   $0x0,-0x28(%rbp)
  8004202cd3:	74 37                	je     8004202d0c <strlcpy+0x5a>
		while (--size > 0 && *src != '\0')
  8004202cd5:	eb 17                	jmp    8004202cee <strlcpy+0x3c>
			*dst++ = *src++;
  8004202cd7:	48 8b 45 e0          	mov    -0x20(%rbp),%rax
  8004202cdb:	0f b6 10             	movzbl (%rax),%edx
  8004202cde:	48 8b 45 e8          	mov    -0x18(%rbp),%rax
  8004202ce2:	88 10                	mov    %dl,(%rax)
  8004202ce4:	48 83 45 e8 01       	addq   $0x1,-0x18(%rbp)
  8004202ce9:	48 83 45 e0 01       	addq   $0x1,-0x20(%rbp)
{
	char *dst_in;

	dst_in = dst;
	if (size > 0) {
		while (--size > 0 && *src != '\0')
  8004202cee:	48 83 6d d8 01       	subq   $0x1,-0x28(%rbp)
  8004202cf3:	48 83 7d d8 00       	cmpq   $0x0,-0x28(%rbp)
  8004202cf8:	74 0b                	je     8004202d05 <strlcpy+0x53>
  8004202cfa:	48 8b 45 e0          	mov    -0x20(%rbp),%rax
  8004202cfe:	0f b6 00             	movzbl (%rax),%eax
  8004202d01:	84 c0                	test   %al,%al
  8004202d03:	75 d2                	jne    8004202cd7 <strlcpy+0x25>
			*dst++ = *src++;
		*dst = '\0';
  8004202d05:	48 8b 45 e8          	mov    -0x18(%rbp),%rax
  8004202d09:	c6 00 00             	movb   $0x0,(%rax)
	}
	return dst - dst_in;
  8004202d0c:	48 8b 55 e8          	mov    -0x18(%rbp),%rdx
  8004202d10:	48 8b 45 f8          	mov    -0x8(%rbp),%rax
  8004202d14:	48 89 d1             	mov    %rdx,%rcx
  8004202d17:	48 29 c1             	sub    %rax,%rcx
  8004202d1a:	48 89 c8             	mov    %rcx,%rax
}
  8004202d1d:	c9                   	leaveq 
  8004202d1e:	c3                   	retq   

0000008004202d1f <strcmp>:

int
strcmp(const char *p, const char *q)
{
  8004202d1f:	55                   	push   %rbp
  8004202d20:	48 89 e5             	mov    %rsp,%rbp
  8004202d23:	48 83 ec 10          	sub    $0x10,%rsp
  8004202d27:	48 89 7d f8          	mov    %rdi,-0x8(%rbp)
  8004202d2b:	48 89 75 f0          	mov    %rsi,-0x10(%rbp)
	while (*p && *p == *q)
  8004202d2f:	eb 0a                	jmp    8004202d3b <strcmp+0x1c>
		p++, q++;
  8004202d31:	48 83 45 f8 01       	addq   $0x1,-0x8(%rbp)
  8004202d36:	48 83 45 f0 01       	addq   $0x1,-0x10(%rbp)
}

int
strcmp(const char *p, const char *q)
{
	while (*p && *p == *q)
  8004202d3b:	48 8b 45 f8          	mov    -0x8(%rbp),%rax
  8004202d3f:	0f b6 00             	movzbl (%rax),%eax
  8004202d42:	84 c0                	test   %al,%al
  8004202d44:	74 12                	je     8004202d58 <strcmp+0x39>
  8004202d46:	48 8b 45 f8          	mov    -0x8(%rbp),%rax
  8004202d4a:	0f b6 10             	movzbl (%rax),%edx
  8004202d4d:	48 8b 45 f0          	mov    -0x10(%rbp),%rax
  8004202d51:	0f b6 00             	movzbl (%rax),%eax
  8004202d54:	38 c2                	cmp    %al,%dl
  8004202d56:	74 d9                	je     8004202d31 <strcmp+0x12>
		p++, q++;
	return (int) ((unsigned char) *p - (unsigned char) *q);
  8004202d58:	48 8b 45 f8          	mov    -0x8(%rbp),%rax
  8004202d5c:	0f b6 00             	movzbl (%rax),%eax
  8004202d5f:	0f b6 d0             	movzbl %al,%edx
  8004202d62:	48 8b 45 f0          	mov    -0x10(%rbp),%rax
  8004202d66:	0f b6 00             	movzbl (%rax),%eax
  8004202d69:	0f b6 c0             	movzbl %al,%eax
  8004202d6c:	89 d1                	mov    %edx,%ecx
  8004202d6e:	29 c1                	sub    %eax,%ecx
  8004202d70:	89 c8                	mov    %ecx,%eax
}
  8004202d72:	c9                   	leaveq 
  8004202d73:	c3                   	retq   

0000008004202d74 <strncmp>:

int
strncmp(const char *p, const char *q, size_t n)
{
  8004202d74:	55                   	push   %rbp
  8004202d75:	48 89 e5             	mov    %rsp,%rbp
  8004202d78:	48 83 ec 18          	sub    $0x18,%rsp
  8004202d7c:	48 89 7d f8          	mov    %rdi,-0x8(%rbp)
  8004202d80:	48 89 75 f0          	mov    %rsi,-0x10(%rbp)
  8004202d84:	48 89 55 e8          	mov    %rdx,-0x18(%rbp)
	while (n > 0 && *p && *p == *q)
  8004202d88:	eb 0f                	jmp    8004202d99 <strncmp+0x25>
		n--, p++, q++;
  8004202d8a:	48 83 6d e8 01       	subq   $0x1,-0x18(%rbp)
  8004202d8f:	48 83 45 f8 01       	addq   $0x1,-0x8(%rbp)
  8004202d94:	48 83 45 f0 01       	addq   $0x1,-0x10(%rbp)
}

int
strncmp(const char *p, const char *q, size_t n)
{
	while (n > 0 && *p && *p == *q)
  8004202d99:	48 83 7d e8 00       	cmpq   $0x0,-0x18(%rbp)
  8004202d9e:	74 1d                	je     8004202dbd <strncmp+0x49>
  8004202da0:	48 8b 45 f8          	mov    -0x8(%rbp),%rax
  8004202da4:	0f b6 00             	movzbl (%rax),%eax
  8004202da7:	84 c0                	test   %al,%al
  8004202da9:	74 12                	je     8004202dbd <strncmp+0x49>
  8004202dab:	48 8b 45 f8          	mov    -0x8(%rbp),%rax
  8004202daf:	0f b6 10             	movzbl (%rax),%edx
  8004202db2:	48 8b 45 f0          	mov    -0x10(%rbp),%rax
  8004202db6:	0f b6 00             	movzbl (%rax),%eax
  8004202db9:	38 c2                	cmp    %al,%dl
  8004202dbb:	74 cd                	je     8004202d8a <strncmp+0x16>
		n--, p++, q++;
	if (n == 0)
  8004202dbd:	48 83 7d e8 00       	cmpq   $0x0,-0x18(%rbp)
  8004202dc2:	75 07                	jne    8004202dcb <strncmp+0x57>
		return 0;
  8004202dc4:	b8 00 00 00 00       	mov    $0x0,%eax
  8004202dc9:	eb 1a                	jmp    8004202de5 <strncmp+0x71>
	else
		return (int) ((unsigned char) *p - (unsigned char) *q);
  8004202dcb:	48 8b 45 f8          	mov    -0x8(%rbp),%rax
  8004202dcf:	0f b6 00             	movzbl (%rax),%eax
  8004202dd2:	0f b6 d0             	movzbl %al,%edx
  8004202dd5:	48 8b 45 f0          	mov    -0x10(%rbp),%rax
  8004202dd9:	0f b6 00             	movzbl (%rax),%eax
  8004202ddc:	0f b6 c0             	movzbl %al,%eax
  8004202ddf:	89 d1                	mov    %edx,%ecx
  8004202de1:	29 c1                	sub    %eax,%ecx
  8004202de3:	89 c8                	mov    %ecx,%eax
}
  8004202de5:	c9                   	leaveq 
  8004202de6:	c3                   	retq   

0000008004202de7 <strchr>:

// Return a pointer to the first occurrence of 'c' in 's',
// or a null pointer if the string has no 'c'.
char *
strchr(const char *s, char c)
{
  8004202de7:	55                   	push   %rbp
  8004202de8:	48 89 e5             	mov    %rsp,%rbp
  8004202deb:	48 83 ec 10          	sub    $0x10,%rsp
  8004202def:	48 89 7d f8          	mov    %rdi,-0x8(%rbp)
  8004202df3:	89 f0                	mov    %esi,%eax
  8004202df5:	88 45 f4             	mov    %al,-0xc(%rbp)
	for (; *s; s++)
  8004202df8:	eb 17                	jmp    8004202e11 <strchr+0x2a>
		if (*s == c)
  8004202dfa:	48 8b 45 f8          	mov    -0x8(%rbp),%rax
  8004202dfe:	0f b6 00             	movzbl (%rax),%eax
  8004202e01:	3a 45 f4             	cmp    -0xc(%rbp),%al
  8004202e04:	75 06                	jne    8004202e0c <strchr+0x25>
			return (char *) s;
  8004202e06:	48 8b 45 f8          	mov    -0x8(%rbp),%rax
  8004202e0a:	eb 15                	jmp    8004202e21 <strchr+0x3a>
// Return a pointer to the first occurrence of 'c' in 's',
// or a null pointer if the string has no 'c'.
char *
strchr(const char *s, char c)
{
	for (; *s; s++)
  8004202e0c:	48 83 45 f8 01       	addq   $0x1,-0x8(%rbp)
  8004202e11:	48 8b 45 f8          	mov    -0x8(%rbp),%rax
  8004202e15:	0f b6 00             	movzbl (%rax),%eax
  8004202e18:	84 c0                	test   %al,%al
  8004202e1a:	75 de                	jne    8004202dfa <strchr+0x13>
		if (*s == c)
			return (char *) s;
	return 0;
  8004202e1c:	b8 00 00 00 00       	mov    $0x0,%eax
}
  8004202e21:	c9                   	leaveq 
  8004202e22:	c3                   	retq   

0000008004202e23 <strfind>:

// Return a pointer to the first occurrence of 'c' in 's',
// or a pointer to the string-ending null character if the string has no 'c'.
char *
strfind(const char *s, char c)
{
  8004202e23:	55                   	push   %rbp
  8004202e24:	48 89 e5             	mov    %rsp,%rbp
  8004202e27:	48 83 ec 10          	sub    $0x10,%rsp
  8004202e2b:	48 89 7d f8          	mov    %rdi,-0x8(%rbp)
  8004202e2f:	89 f0                	mov    %esi,%eax
  8004202e31:	88 45 f4             	mov    %al,-0xc(%rbp)
	for (; *s; s++)
  8004202e34:	eb 11                	jmp    8004202e47 <strfind+0x24>
		if (*s == c)
  8004202e36:	48 8b 45 f8          	mov    -0x8(%rbp),%rax
  8004202e3a:	0f b6 00             	movzbl (%rax),%eax
  8004202e3d:	3a 45 f4             	cmp    -0xc(%rbp),%al
  8004202e40:	74 12                	je     8004202e54 <strfind+0x31>
// Return a pointer to the first occurrence of 'c' in 's',
// or a pointer to the string-ending null character if the string has no 'c'.
char *
strfind(const char *s, char c)
{
	for (; *s; s++)
  8004202e42:	48 83 45 f8 01       	addq   $0x1,-0x8(%rbp)
  8004202e47:	48 8b 45 f8          	mov    -0x8(%rbp),%rax
  8004202e4b:	0f b6 00             	movzbl (%rax),%eax
  8004202e4e:	84 c0                	test   %al,%al
  8004202e50:	75 e4                	jne    8004202e36 <strfind+0x13>
  8004202e52:	eb 01                	jmp    8004202e55 <strfind+0x32>
		if (*s == c)
			break;
  8004202e54:	90                   	nop
	return (char *) s;
  8004202e55:	48 8b 45 f8          	mov    -0x8(%rbp),%rax
}
  8004202e59:	c9                   	leaveq 
  8004202e5a:	c3                   	retq   

0000008004202e5b <memset>:

#if ASM
void *
memset(void *v, int c, size_t n)
{
  8004202e5b:	55                   	push   %rbp
  8004202e5c:	48 89 e5             	mov    %rsp,%rbp
  8004202e5f:	48 83 ec 18          	sub    $0x18,%rsp
  8004202e63:	48 89 7d f8          	mov    %rdi,-0x8(%rbp)
  8004202e67:	89 75 f4             	mov    %esi,-0xc(%rbp)
  8004202e6a:	48 89 55 e8          	mov    %rdx,-0x18(%rbp)
	char *p;

	if (n == 0)
  8004202e6e:	48 83 7d e8 00       	cmpq   $0x0,-0x18(%rbp)
  8004202e73:	75 06                	jne    8004202e7b <memset+0x20>
		return v;
  8004202e75:	48 8b 45 f8          	mov    -0x8(%rbp),%rax
  8004202e79:	eb 69                	jmp    8004202ee4 <memset+0x89>
	if ((int64_t)v%4 == 0 && n%4 == 0) {
  8004202e7b:	48 8b 45 f8          	mov    -0x8(%rbp),%rax
  8004202e7f:	83 e0 03             	and    $0x3,%eax
  8004202e82:	48 85 c0             	test   %rax,%rax
  8004202e85:	75 48                	jne    8004202ecf <memset+0x74>
  8004202e87:	48 8b 45 e8          	mov    -0x18(%rbp),%rax
  8004202e8b:	83 e0 03             	and    $0x3,%eax
  8004202e8e:	48 85 c0             	test   %rax,%rax
  8004202e91:	75 3c                	jne    8004202ecf <memset+0x74>
		c &= 0xFF;
  8004202e93:	81 65 f4 ff 00 00 00 	andl   $0xff,-0xc(%rbp)
		c = (c<<24)|(c<<16)|(c<<8)|c;
  8004202e9a:	8b 45 f4             	mov    -0xc(%rbp),%eax
  8004202e9d:	89 c2                	mov    %eax,%edx
  8004202e9f:	c1 e2 18             	shl    $0x18,%edx
  8004202ea2:	8b 45 f4             	mov    -0xc(%rbp),%eax
  8004202ea5:	c1 e0 10             	shl    $0x10,%eax
  8004202ea8:	09 c2                	or     %eax,%edx
  8004202eaa:	8b 45 f4             	mov    -0xc(%rbp),%eax
  8004202ead:	c1 e0 08             	shl    $0x8,%eax
  8004202eb0:	09 d0                	or     %edx,%eax
  8004202eb2:	09 45 f4             	or     %eax,-0xc(%rbp)
		asm volatile("cld; rep stosl\n"
			:: "D" (v), "a" (c), "c" (n/4)
  8004202eb5:	48 8b 45 e8          	mov    -0x18(%rbp),%rax
  8004202eb9:	48 89 c1             	mov    %rax,%rcx
  8004202ebc:	48 c1 e9 02          	shr    $0x2,%rcx
	if (n == 0)
		return v;
	if ((int64_t)v%4 == 0 && n%4 == 0) {
		c &= 0xFF;
		c = (c<<24)|(c<<16)|(c<<8)|c;
		asm volatile("cld; rep stosl\n"
  8004202ec0:	48 8b 55 f8          	mov    -0x8(%rbp),%rdx
  8004202ec4:	8b 45 f4             	mov    -0xc(%rbp),%eax
  8004202ec7:	48 89 d7             	mov    %rdx,%rdi
  8004202eca:	fc                   	cld    
  8004202ecb:	f3 ab                	rep stos %eax,%es:(%rdi)
  8004202ecd:	eb 11                	jmp    8004202ee0 <memset+0x85>
			:: "D" (v), "a" (c), "c" (n/4)
			: "cc", "memory");
	} else
		asm volatile("cld; rep stosb\n"
  8004202ecf:	48 8b 55 f8          	mov    -0x8(%rbp),%rdx
  8004202ed3:	8b 45 f4             	mov    -0xc(%rbp),%eax
  8004202ed6:	48 8b 4d e8          	mov    -0x18(%rbp),%rcx
  8004202eda:	48 89 d7             	mov    %rdx,%rdi
  8004202edd:	fc                   	cld    
  8004202ede:	f3 aa                	rep stos %al,%es:(%rdi)
			:: "D" (v), "a" (c), "c" (n)
			: "cc", "memory");
	return v;
  8004202ee0:	48 8b 45 f8          	mov    -0x8(%rbp),%rax
}
  8004202ee4:	c9                   	leaveq 
  8004202ee5:	c3                   	retq   

0000008004202ee6 <memmove>:

void *
memmove(void *dst, const void *src, size_t n)
{
  8004202ee6:	55                   	push   %rbp
  8004202ee7:	48 89 e5             	mov    %rsp,%rbp
  8004202eea:	48 83 ec 28          	sub    $0x28,%rsp
  8004202eee:	48 89 7d e8          	mov    %rdi,-0x18(%rbp)
  8004202ef2:	48 89 75 e0          	mov    %rsi,-0x20(%rbp)
  8004202ef6:	48 89 55 d8          	mov    %rdx,-0x28(%rbp)
	const char *s;
	char *d;

	s = src;
  8004202efa:	48 8b 45 e0          	mov    -0x20(%rbp),%rax
  8004202efe:	48 89 45 f8          	mov    %rax,-0x8(%rbp)
	d = dst;
  8004202f02:	48 8b 45 e8          	mov    -0x18(%rbp),%rax
  8004202f06:	48 89 45 f0          	mov    %rax,-0x10(%rbp)
	if (s < d && s + n > d) {
  8004202f0a:	48 8b 45 f8          	mov    -0x8(%rbp),%rax
  8004202f0e:	48 3b 45 f0          	cmp    -0x10(%rbp),%rax
  8004202f12:	0f 83 88 00 00 00    	jae    8004202fa0 <memmove+0xba>
  8004202f18:	48 8b 45 d8          	mov    -0x28(%rbp),%rax
  8004202f1c:	48 8b 55 f8          	mov    -0x8(%rbp),%rdx
  8004202f20:	48 01 d0             	add    %rdx,%rax
  8004202f23:	48 3b 45 f0          	cmp    -0x10(%rbp),%rax
  8004202f27:	76 77                	jbe    8004202fa0 <memmove+0xba>
		s += n;
  8004202f29:	48 8b 45 d8          	mov    -0x28(%rbp),%rax
  8004202f2d:	48 01 45 f8          	add    %rax,-0x8(%rbp)
		d += n;
  8004202f31:	48 8b 45 d8          	mov    -0x28(%rbp),%rax
  8004202f35:	48 01 45 f0          	add    %rax,-0x10(%rbp)
		if ((int64_t)s%4 == 0 && (int64_t)d%4 == 0 && n%4 == 0)
  8004202f39:	48 8b 45 f8          	mov    -0x8(%rbp),%rax
  8004202f3d:	83 e0 03             	and    $0x3,%eax
  8004202f40:	48 85 c0             	test   %rax,%rax
  8004202f43:	75 3b                	jne    8004202f80 <memmove+0x9a>
  8004202f45:	48 8b 45 f0          	mov    -0x10(%rbp),%rax
  8004202f49:	83 e0 03             	and    $0x3,%eax
  8004202f4c:	48 85 c0             	test   %rax,%rax
  8004202f4f:	75 2f                	jne    8004202f80 <memmove+0x9a>
  8004202f51:	48 8b 45 d8          	mov    -0x28(%rbp),%rax
  8004202f55:	83 e0 03             	and    $0x3,%eax
  8004202f58:	48 85 c0             	test   %rax,%rax
  8004202f5b:	75 23                	jne    8004202f80 <memmove+0x9a>
			asm volatile("std; rep movsl\n"
				:: "D" (d-4), "S" (s-4), "c" (n/4) : "cc", "memory");
  8004202f5d:	48 8b 45 f0          	mov    -0x10(%rbp),%rax
  8004202f61:	48 83 e8 04          	sub    $0x4,%rax
  8004202f65:	48 8b 55 f8          	mov    -0x8(%rbp),%rdx
  8004202f69:	48 83 ea 04          	sub    $0x4,%rdx
  8004202f6d:	48 8b 4d d8          	mov    -0x28(%rbp),%rcx
  8004202f71:	48 c1 e9 02          	shr    $0x2,%rcx
	d = dst;
	if (s < d && s + n > d) {
		s += n;
		d += n;
		if ((int64_t)s%4 == 0 && (int64_t)d%4 == 0 && n%4 == 0)
			asm volatile("std; rep movsl\n"
  8004202f75:	48 89 c7             	mov    %rax,%rdi
  8004202f78:	48 89 d6             	mov    %rdx,%rsi
  8004202f7b:	fd                   	std    
  8004202f7c:	f3 a5                	rep movsl %ds:(%rsi),%es:(%rdi)
  8004202f7e:	eb 1d                	jmp    8004202f9d <memmove+0xb7>
				:: "D" (d-4), "S" (s-4), "c" (n/4) : "cc", "memory");
		else
			asm volatile("std; rep movsb\n"
				:: "D" (d-1), "S" (s-1), "c" (n) : "cc", "memory");
  8004202f80:	48 8b 45 f0          	mov    -0x10(%rbp),%rax
  8004202f84:	48 8d 50 ff          	lea    -0x1(%rax),%rdx
  8004202f88:	48 8b 45 f8          	mov    -0x8(%rbp),%rax
  8004202f8c:	48 8d 70 ff          	lea    -0x1(%rax),%rsi
		d += n;
		if ((int64_t)s%4 == 0 && (int64_t)d%4 == 0 && n%4 == 0)
			asm volatile("std; rep movsl\n"
				:: "D" (d-4), "S" (s-4), "c" (n/4) : "cc", "memory");
		else
			asm volatile("std; rep movsb\n"
  8004202f90:	48 8b 45 d8          	mov    -0x28(%rbp),%rax
  8004202f94:	48 89 d7             	mov    %rdx,%rdi
  8004202f97:	48 89 c1             	mov    %rax,%rcx
  8004202f9a:	fd                   	std    
  8004202f9b:	f3 a4                	rep movsb %ds:(%rsi),%es:(%rdi)
				:: "D" (d-1), "S" (s-1), "c" (n) : "cc", "memory");
		// Some versions of GCC rely on DF being clear
		asm volatile("cld" ::: "cc");
  8004202f9d:	fc                   	cld    
  8004202f9e:	eb 57                	jmp    8004202ff7 <memmove+0x111>
	} else {
		if ((int64_t)s%4 == 0 && (int64_t)d%4 == 0 && n%4 == 0)
  8004202fa0:	48 8b 45 f8          	mov    -0x8(%rbp),%rax
  8004202fa4:	83 e0 03             	and    $0x3,%eax
  8004202fa7:	48 85 c0             	test   %rax,%rax
  8004202faa:	75 36                	jne    8004202fe2 <memmove+0xfc>
  8004202fac:	48 8b 45 f0          	mov    -0x10(%rbp),%rax
  8004202fb0:	83 e0 03             	and    $0x3,%eax
  8004202fb3:	48 85 c0             	test   %rax,%rax
  8004202fb6:	75 2a                	jne    8004202fe2 <memmove+0xfc>
  8004202fb8:	48 8b 45 d8          	mov    -0x28(%rbp),%rax
  8004202fbc:	83 e0 03             	and    $0x3,%eax
  8004202fbf:	48 85 c0             	test   %rax,%rax
  8004202fc2:	75 1e                	jne    8004202fe2 <memmove+0xfc>
			asm volatile("cld; rep movsl\n"
				:: "D" (d), "S" (s), "c" (n/4) : "cc", "memory");
  8004202fc4:	48 8b 45 d8          	mov    -0x28(%rbp),%rax
  8004202fc8:	48 89 c1             	mov    %rax,%rcx
  8004202fcb:	48 c1 e9 02          	shr    $0x2,%rcx
				:: "D" (d-1), "S" (s-1), "c" (n) : "cc", "memory");
		// Some versions of GCC rely on DF being clear
		asm volatile("cld" ::: "cc");
	} else {
		if ((int64_t)s%4 == 0 && (int64_t)d%4 == 0 && n%4 == 0)
			asm volatile("cld; rep movsl\n"
  8004202fcf:	48 8b 45 f0          	mov    -0x10(%rbp),%rax
  8004202fd3:	48 8b 55 f8          	mov    -0x8(%rbp),%rdx
  8004202fd7:	48 89 c7             	mov    %rax,%rdi
  8004202fda:	48 89 d6             	mov    %rdx,%rsi
  8004202fdd:	fc                   	cld    
  8004202fde:	f3 a5                	rep movsl %ds:(%rsi),%es:(%rdi)
  8004202fe0:	eb 15                	jmp    8004202ff7 <memmove+0x111>
				:: "D" (d), "S" (s), "c" (n/4) : "cc", "memory");
		else
			asm volatile("cld; rep movsb\n"
  8004202fe2:	48 8b 45 f0          	mov    -0x10(%rbp),%rax
  8004202fe6:	48 8b 55 f8          	mov    -0x8(%rbp),%rdx
  8004202fea:	48 8b 4d d8          	mov    -0x28(%rbp),%rcx
  8004202fee:	48 89 c7             	mov    %rax,%rdi
  8004202ff1:	48 89 d6             	mov    %rdx,%rsi
  8004202ff4:	fc                   	cld    
  8004202ff5:	f3 a4                	rep movsb %ds:(%rsi),%es:(%rdi)
				:: "D" (d), "S" (s), "c" (n) : "cc", "memory");
	}
	return dst;
  8004202ff7:	48 8b 45 e8          	mov    -0x18(%rbp),%rax
}
  8004202ffb:	c9                   	leaveq 
  8004202ffc:	c3                   	retq   

0000008004202ffd <memcpy>:
}
#endif

void *
memcpy(void *dst, const void *src, size_t n)
{
  8004202ffd:	55                   	push   %rbp
  8004202ffe:	48 89 e5             	mov    %rsp,%rbp
  8004203001:	48 83 ec 18          	sub    $0x18,%rsp
  8004203005:	48 89 7d f8          	mov    %rdi,-0x8(%rbp)
  8004203009:	48 89 75 f0          	mov    %rsi,-0x10(%rbp)
  800420300d:	48 89 55 e8          	mov    %rdx,-0x18(%rbp)
	return memmove(dst, src, n);
  8004203011:	48 8b 55 e8          	mov    -0x18(%rbp),%rdx
  8004203015:	48 8b 4d f0          	mov    -0x10(%rbp),%rcx
  8004203019:	48 8b 45 f8          	mov    -0x8(%rbp),%rax
  800420301d:	48 89 ce             	mov    %rcx,%rsi
  8004203020:	48 89 c7             	mov    %rax,%rdi
  8004203023:	48 b8 e6 2e 20 04 80 	movabs $0x8004202ee6,%rax
  800420302a:	00 00 00 
  800420302d:	ff d0                	callq  *%rax
}
  800420302f:	c9                   	leaveq 
  8004203030:	c3                   	retq   

0000008004203031 <memcmp>:

int
memcmp(const void *v1, const void *v2, size_t n)
{
  8004203031:	55                   	push   %rbp
  8004203032:	48 89 e5             	mov    %rsp,%rbp
  8004203035:	48 83 ec 28          	sub    $0x28,%rsp
  8004203039:	48 89 7d e8          	mov    %rdi,-0x18(%rbp)
  800420303d:	48 89 75 e0          	mov    %rsi,-0x20(%rbp)
  8004203041:	48 89 55 d8          	mov    %rdx,-0x28(%rbp)
	const uint8_t *s1 = (const uint8_t *) v1;
  8004203045:	48 8b 45 e8          	mov    -0x18(%rbp),%rax
  8004203049:	48 89 45 f8          	mov    %rax,-0x8(%rbp)
	const uint8_t *s2 = (const uint8_t *) v2;
  800420304d:	48 8b 45 e0          	mov    -0x20(%rbp),%rax
  8004203051:	48 89 45 f0          	mov    %rax,-0x10(%rbp)

	while (n-- > 0) {
  8004203055:	eb 38                	jmp    800420308f <memcmp+0x5e>
		if (*s1 != *s2)
  8004203057:	48 8b 45 f8          	mov    -0x8(%rbp),%rax
  800420305b:	0f b6 10             	movzbl (%rax),%edx
  800420305e:	48 8b 45 f0          	mov    -0x10(%rbp),%rax
  8004203062:	0f b6 00             	movzbl (%rax),%eax
  8004203065:	38 c2                	cmp    %al,%dl
  8004203067:	74 1c                	je     8004203085 <memcmp+0x54>
			return (int) *s1 - (int) *s2;
  8004203069:	48 8b 45 f8          	mov    -0x8(%rbp),%rax
  800420306d:	0f b6 00             	movzbl (%rax),%eax
  8004203070:	0f b6 d0             	movzbl %al,%edx
  8004203073:	48 8b 45 f0          	mov    -0x10(%rbp),%rax
  8004203077:	0f b6 00             	movzbl (%rax),%eax
  800420307a:	0f b6 c0             	movzbl %al,%eax
  800420307d:	89 d1                	mov    %edx,%ecx
  800420307f:	29 c1                	sub    %eax,%ecx
  8004203081:	89 c8                	mov    %ecx,%eax
  8004203083:	eb 20                	jmp    80042030a5 <memcmp+0x74>
		s1++, s2++;
  8004203085:	48 83 45 f8 01       	addq   $0x1,-0x8(%rbp)
  800420308a:	48 83 45 f0 01       	addq   $0x1,-0x10(%rbp)
memcmp(const void *v1, const void *v2, size_t n)
{
	const uint8_t *s1 = (const uint8_t *) v1;
	const uint8_t *s2 = (const uint8_t *) v2;

	while (n-- > 0) {
  800420308f:	48 83 7d d8 00       	cmpq   $0x0,-0x28(%rbp)
  8004203094:	0f 95 c0             	setne  %al
  8004203097:	48 83 6d d8 01       	subq   $0x1,-0x28(%rbp)
  800420309c:	84 c0                	test   %al,%al
  800420309e:	75 b7                	jne    8004203057 <memcmp+0x26>
		if (*s1 != *s2)
			return (int) *s1 - (int) *s2;
		s1++, s2++;
	}

	return 0;
  80042030a0:	b8 00 00 00 00       	mov    $0x0,%eax
}
  80042030a5:	c9                   	leaveq 
  80042030a6:	c3                   	retq   

00000080042030a7 <memfind>:

void *
memfind(const void *s, int c, size_t n)
{
  80042030a7:	55                   	push   %rbp
  80042030a8:	48 89 e5             	mov    %rsp,%rbp
  80042030ab:	48 83 ec 28          	sub    $0x28,%rsp
  80042030af:	48 89 7d e8          	mov    %rdi,-0x18(%rbp)
  80042030b3:	89 75 e4             	mov    %esi,-0x1c(%rbp)
  80042030b6:	48 89 55 d8          	mov    %rdx,-0x28(%rbp)
	const void *ends = (const char *) s + n;
  80042030ba:	48 8b 45 d8          	mov    -0x28(%rbp),%rax
  80042030be:	48 8b 55 e8          	mov    -0x18(%rbp),%rdx
  80042030c2:	48 01 d0             	add    %rdx,%rax
  80042030c5:	48 89 45 f8          	mov    %rax,-0x8(%rbp)
	for (; s < ends; s++)
  80042030c9:	eb 13                	jmp    80042030de <memfind+0x37>
		if (*(const unsigned char *) s == (unsigned char) c)
  80042030cb:	48 8b 45 e8          	mov    -0x18(%rbp),%rax
  80042030cf:	0f b6 10             	movzbl (%rax),%edx
  80042030d2:	8b 45 e4             	mov    -0x1c(%rbp),%eax
  80042030d5:	38 c2                	cmp    %al,%dl
  80042030d7:	74 11                	je     80042030ea <memfind+0x43>

void *
memfind(const void *s, int c, size_t n)
{
	const void *ends = (const char *) s + n;
	for (; s < ends; s++)
  80042030d9:	48 83 45 e8 01       	addq   $0x1,-0x18(%rbp)
  80042030de:	48 8b 45 e8          	mov    -0x18(%rbp),%rax
  80042030e2:	48 3b 45 f8          	cmp    -0x8(%rbp),%rax
  80042030e6:	72 e3                	jb     80042030cb <memfind+0x24>
  80042030e8:	eb 01                	jmp    80042030eb <memfind+0x44>
		if (*(const unsigned char *) s == (unsigned char) c)
			break;
  80042030ea:	90                   	nop
	return (void *) s;
  80042030eb:	48 8b 45 e8          	mov    -0x18(%rbp),%rax
}
  80042030ef:	c9                   	leaveq 
  80042030f0:	c3                   	retq   

00000080042030f1 <strtol>:

long
strtol(const char *s, char **endptr, int base)
{
  80042030f1:	55                   	push   %rbp
  80042030f2:	48 89 e5             	mov    %rsp,%rbp
  80042030f5:	48 83 ec 38          	sub    $0x38,%rsp
  80042030f9:	48 89 7d d8          	mov    %rdi,-0x28(%rbp)
  80042030fd:	48 89 75 d0          	mov    %rsi,-0x30(%rbp)
  8004203101:	89 55 cc             	mov    %edx,-0x34(%rbp)
	int neg = 0;
  8004203104:	c7 45 fc 00 00 00 00 	movl   $0x0,-0x4(%rbp)
	long val = 0;
  800420310b:	48 c7 45 f0 00 00 00 	movq   $0x0,-0x10(%rbp)
  8004203112:	00 

	// gobble initial whitespace
	while (*s == ' ' || *s == '\t')
  8004203113:	eb 05                	jmp    800420311a <strtol+0x29>
		s++;
  8004203115:	48 83 45 d8 01       	addq   $0x1,-0x28(%rbp)
{
	int neg = 0;
	long val = 0;

	// gobble initial whitespace
	while (*s == ' ' || *s == '\t')
  800420311a:	48 8b 45 d8          	mov    -0x28(%rbp),%rax
  800420311e:	0f b6 00             	movzbl (%rax),%eax
  8004203121:	3c 20                	cmp    $0x20,%al
  8004203123:	74 f0                	je     8004203115 <strtol+0x24>
  8004203125:	48 8b 45 d8          	mov    -0x28(%rbp),%rax
  8004203129:	0f b6 00             	movzbl (%rax),%eax
  800420312c:	3c 09                	cmp    $0x9,%al
  800420312e:	74 e5                	je     8004203115 <strtol+0x24>
		s++;

	// plus/minus sign
	if (*s == '+')
  8004203130:	48 8b 45 d8          	mov    -0x28(%rbp),%rax
  8004203134:	0f b6 00             	movzbl (%rax),%eax
  8004203137:	3c 2b                	cmp    $0x2b,%al
  8004203139:	75 07                	jne    8004203142 <strtol+0x51>
		s++;
  800420313b:	48 83 45 d8 01       	addq   $0x1,-0x28(%rbp)
  8004203140:	eb 17                	jmp    8004203159 <strtol+0x68>
	else if (*s == '-')
  8004203142:	48 8b 45 d8          	mov    -0x28(%rbp),%rax
  8004203146:	0f b6 00             	movzbl (%rax),%eax
  8004203149:	3c 2d                	cmp    $0x2d,%al
  800420314b:	75 0c                	jne    8004203159 <strtol+0x68>
		s++, neg = 1;
  800420314d:	48 83 45 d8 01       	addq   $0x1,-0x28(%rbp)
  8004203152:	c7 45 fc 01 00 00 00 	movl   $0x1,-0x4(%rbp)

	// hex or octal base prefix
	if ((base == 0 || base == 16) && (s[0] == '0' && s[1] == 'x'))
  8004203159:	83 7d cc 00          	cmpl   $0x0,-0x34(%rbp)
  800420315d:	74 06                	je     8004203165 <strtol+0x74>
  800420315f:	83 7d cc 10          	cmpl   $0x10,-0x34(%rbp)
  8004203163:	75 28                	jne    800420318d <strtol+0x9c>
  8004203165:	48 8b 45 d8          	mov    -0x28(%rbp),%rax
  8004203169:	0f b6 00             	movzbl (%rax),%eax
  800420316c:	3c 30                	cmp    $0x30,%al
  800420316e:	75 1d                	jne    800420318d <strtol+0x9c>
  8004203170:	48 8b 45 d8          	mov    -0x28(%rbp),%rax
  8004203174:	48 83 c0 01          	add    $0x1,%rax
  8004203178:	0f b6 00             	movzbl (%rax),%eax
  800420317b:	3c 78                	cmp    $0x78,%al
  800420317d:	75 0e                	jne    800420318d <strtol+0x9c>
		s += 2, base = 16;
  800420317f:	48 83 45 d8 02       	addq   $0x2,-0x28(%rbp)
  8004203184:	c7 45 cc 10 00 00 00 	movl   $0x10,-0x34(%rbp)
  800420318b:	eb 2c                	jmp    80042031b9 <strtol+0xc8>
	else if (base == 0 && s[0] == '0')
  800420318d:	83 7d cc 00          	cmpl   $0x0,-0x34(%rbp)
  8004203191:	75 19                	jne    80042031ac <strtol+0xbb>
  8004203193:	48 8b 45 d8          	mov    -0x28(%rbp),%rax
  8004203197:	0f b6 00             	movzbl (%rax),%eax
  800420319a:	3c 30                	cmp    $0x30,%al
  800420319c:	75 0e                	jne    80042031ac <strtol+0xbb>
		s++, base = 8;
  800420319e:	48 83 45 d8 01       	addq   $0x1,-0x28(%rbp)
  80042031a3:	c7 45 cc 08 00 00 00 	movl   $0x8,-0x34(%rbp)
  80042031aa:	eb 0d                	jmp    80042031b9 <strtol+0xc8>
	else if (base == 0)
  80042031ac:	83 7d cc 00          	cmpl   $0x0,-0x34(%rbp)
  80042031b0:	75 07                	jne    80042031b9 <strtol+0xc8>
		base = 10;
  80042031b2:	c7 45 cc 0a 00 00 00 	movl   $0xa,-0x34(%rbp)

	// digits
	while (1) {
		int dig;

		if (*s >= '0' && *s <= '9')
  80042031b9:	48 8b 45 d8          	mov    -0x28(%rbp),%rax
  80042031bd:	0f b6 00             	movzbl (%rax),%eax
  80042031c0:	3c 2f                	cmp    $0x2f,%al
  80042031c2:	7e 1d                	jle    80042031e1 <strtol+0xf0>
  80042031c4:	48 8b 45 d8          	mov    -0x28(%rbp),%rax
  80042031c8:	0f b6 00             	movzbl (%rax),%eax
  80042031cb:	3c 39                	cmp    $0x39,%al
  80042031cd:	7f 12                	jg     80042031e1 <strtol+0xf0>
			dig = *s - '0';
  80042031cf:	48 8b 45 d8          	mov    -0x28(%rbp),%rax
  80042031d3:	0f b6 00             	movzbl (%rax),%eax
  80042031d6:	0f be c0             	movsbl %al,%eax
  80042031d9:	83 e8 30             	sub    $0x30,%eax
  80042031dc:	89 45 ec             	mov    %eax,-0x14(%rbp)
  80042031df:	eb 4e                	jmp    800420322f <strtol+0x13e>
		else if (*s >= 'a' && *s <= 'z')
  80042031e1:	48 8b 45 d8          	mov    -0x28(%rbp),%rax
  80042031e5:	0f b6 00             	movzbl (%rax),%eax
  80042031e8:	3c 60                	cmp    $0x60,%al
  80042031ea:	7e 1d                	jle    8004203209 <strtol+0x118>
  80042031ec:	48 8b 45 d8          	mov    -0x28(%rbp),%rax
  80042031f0:	0f b6 00             	movzbl (%rax),%eax
  80042031f3:	3c 7a                	cmp    $0x7a,%al
  80042031f5:	7f 12                	jg     8004203209 <strtol+0x118>
			dig = *s - 'a' + 10;
  80042031f7:	48 8b 45 d8          	mov    -0x28(%rbp),%rax
  80042031fb:	0f b6 00             	movzbl (%rax),%eax
  80042031fe:	0f be c0             	movsbl %al,%eax
  8004203201:	83 e8 57             	sub    $0x57,%eax
  8004203204:	89 45 ec             	mov    %eax,-0x14(%rbp)
  8004203207:	eb 26                	jmp    800420322f <strtol+0x13e>
		else if (*s >= 'A' && *s <= 'Z')
  8004203209:	48 8b 45 d8          	mov    -0x28(%rbp),%rax
  800420320d:	0f b6 00             	movzbl (%rax),%eax
  8004203210:	3c 40                	cmp    $0x40,%al
  8004203212:	7e 47                	jle    800420325b <strtol+0x16a>
  8004203214:	48 8b 45 d8          	mov    -0x28(%rbp),%rax
  8004203218:	0f b6 00             	movzbl (%rax),%eax
  800420321b:	3c 5a                	cmp    $0x5a,%al
  800420321d:	7f 3c                	jg     800420325b <strtol+0x16a>
			dig = *s - 'A' + 10;
  800420321f:	48 8b 45 d8          	mov    -0x28(%rbp),%rax
  8004203223:	0f b6 00             	movzbl (%rax),%eax
  8004203226:	0f be c0             	movsbl %al,%eax
  8004203229:	83 e8 37             	sub    $0x37,%eax
  800420322c:	89 45 ec             	mov    %eax,-0x14(%rbp)
		else
			break;
		if (dig >= base)
  800420322f:	8b 45 ec             	mov    -0x14(%rbp),%eax
  8004203232:	3b 45 cc             	cmp    -0x34(%rbp),%eax
  8004203235:	7d 23                	jge    800420325a <strtol+0x169>
			break;
		s++, val = (val * base) + dig;
  8004203237:	48 83 45 d8 01       	addq   $0x1,-0x28(%rbp)
  800420323c:	8b 45 cc             	mov    -0x34(%rbp),%eax
  800420323f:	48 98                	cltq   
  8004203241:	48 89 c2             	mov    %rax,%rdx
  8004203244:	48 0f af 55 f0       	imul   -0x10(%rbp),%rdx
  8004203249:	8b 45 ec             	mov    -0x14(%rbp),%eax
  800420324c:	48 98                	cltq   
  800420324e:	48 01 d0             	add    %rdx,%rax
  8004203251:	48 89 45 f0          	mov    %rax,-0x10(%rbp)
		// we don't properly detect overflow!
	}
  8004203255:	e9 5f ff ff ff       	jmpq   80042031b9 <strtol+0xc8>
		else if (*s >= 'A' && *s <= 'Z')
			dig = *s - 'A' + 10;
		else
			break;
		if (dig >= base)
			break;
  800420325a:	90                   	nop
		s++, val = (val * base) + dig;
		// we don't properly detect overflow!
	}

	if (endptr)
  800420325b:	48 83 7d d0 00       	cmpq   $0x0,-0x30(%rbp)
  8004203260:	74 0b                	je     800420326d <strtol+0x17c>
		*endptr = (char *) s;
  8004203262:	48 8b 45 d0          	mov    -0x30(%rbp),%rax
  8004203266:	48 8b 55 d8          	mov    -0x28(%rbp),%rdx
  800420326a:	48 89 10             	mov    %rdx,(%rax)
	return (neg ? -val : val);
  800420326d:	83 7d fc 00          	cmpl   $0x0,-0x4(%rbp)
  8004203271:	74 09                	je     800420327c <strtol+0x18b>
  8004203273:	48 8b 45 f0          	mov    -0x10(%rbp),%rax
  8004203277:	48 f7 d8             	neg    %rax
  800420327a:	eb 04                	jmp    8004203280 <strtol+0x18f>
  800420327c:	48 8b 45 f0          	mov    -0x10(%rbp),%rax
}
  8004203280:	c9                   	leaveq 
  8004203281:	c3                   	retq   

0000008004203282 <strstr>:

char * strstr(const char *in, const char *str)
{
  8004203282:	55                   	push   %rbp
  8004203283:	48 89 e5             	mov    %rsp,%rbp
  8004203286:	48 83 ec 30          	sub    $0x30,%rsp
  800420328a:	48 89 7d d8          	mov    %rdi,-0x28(%rbp)
  800420328e:	48 89 75 d0          	mov    %rsi,-0x30(%rbp)
    char c;
    size_t len;

    c = *str++;
  8004203292:	48 8b 45 d0          	mov    -0x30(%rbp),%rax
  8004203296:	0f b6 00             	movzbl (%rax),%eax
  8004203299:	88 45 ff             	mov    %al,-0x1(%rbp)
  800420329c:	48 83 45 d0 01       	addq   $0x1,-0x30(%rbp)
    if (!c)
  80042032a1:	80 7d ff 00          	cmpb   $0x0,-0x1(%rbp)
  80042032a5:	75 06                	jne    80042032ad <strstr+0x2b>
        return (char *) in;	// Trivial empty string case
  80042032a7:	48 8b 45 d8          	mov    -0x28(%rbp),%rax
  80042032ab:	eb 68                	jmp    8004203315 <strstr+0x93>

    len = strlen(str);
  80042032ad:	48 8b 45 d0          	mov    -0x30(%rbp),%rax
  80042032b1:	48 89 c7             	mov    %rax,%rdi
  80042032b4:	48 b8 58 2b 20 04 80 	movabs $0x8004202b58,%rax
  80042032bb:	00 00 00 
  80042032be:	ff d0                	callq  *%rax
  80042032c0:	48 98                	cltq   
  80042032c2:	48 89 45 f0          	mov    %rax,-0x10(%rbp)
    do {
        char sc;

        do {
            sc = *in++;
  80042032c6:	48 8b 45 d8          	mov    -0x28(%rbp),%rax
  80042032ca:	0f b6 00             	movzbl (%rax),%eax
  80042032cd:	88 45 ef             	mov    %al,-0x11(%rbp)
  80042032d0:	48 83 45 d8 01       	addq   $0x1,-0x28(%rbp)
            if (!sc)
  80042032d5:	80 7d ef 00          	cmpb   $0x0,-0x11(%rbp)
  80042032d9:	75 07                	jne    80042032e2 <strstr+0x60>
                return (char *) 0;
  80042032db:	b8 00 00 00 00       	mov    $0x0,%eax
  80042032e0:	eb 33                	jmp    8004203315 <strstr+0x93>
        } while (sc != c);
  80042032e2:	0f b6 45 ef          	movzbl -0x11(%rbp),%eax
  80042032e6:	3a 45 ff             	cmp    -0x1(%rbp),%al
  80042032e9:	75 db                	jne    80042032c6 <strstr+0x44>
    } while (strncmp(in, str, len) != 0);
  80042032eb:	48 8b 55 f0          	mov    -0x10(%rbp),%rdx
  80042032ef:	48 8b 4d d0          	mov    -0x30(%rbp),%rcx
  80042032f3:	48 8b 45 d8          	mov    -0x28(%rbp),%rax
  80042032f7:	48 89 ce             	mov    %rcx,%rsi
  80042032fa:	48 89 c7             	mov    %rax,%rdi
  80042032fd:	48 b8 74 2d 20 04 80 	movabs $0x8004202d74,%rax
  8004203304:	00 00 00 
  8004203307:	ff d0                	callq  *%rax
  8004203309:	85 c0                	test   %eax,%eax
  800420330b:	75 b9                	jne    80042032c6 <strstr+0x44>

    return (char *) (in - 1);
  800420330d:	48 8b 45 d8          	mov    -0x28(%rbp),%rax
  8004203311:	48 83 e8 01          	sub    $0x1,%rax
}
  8004203315:	c9                   	leaveq 
  8004203316:	c3                   	retq   
	...

0000008004203318 <_dwarf_read_lsb>:

int  _dwarf_find_section_enhanced(Dwarf_Section *ds);

uint64_t
_dwarf_read_lsb(uint8_t *data, uint64_t *offsetp, int bytes_to_read)
{
  8004203318:	55                   	push   %rbp
  8004203319:	48 89 e5             	mov    %rsp,%rbp
  800420331c:	48 83 ec 28          	sub    $0x28,%rsp
  8004203320:	48 89 7d e8          	mov    %rdi,-0x18(%rbp)
  8004203324:	48 89 75 e0          	mov    %rsi,-0x20(%rbp)
  8004203328:	89 55 dc             	mov    %edx,-0x24(%rbp)
	uint64_t ret;
	uint8_t *src;

	src = data + *offsetp;
  800420332b:	48 8b 45 e0          	mov    -0x20(%rbp),%rax
  800420332f:	48 8b 00             	mov    (%rax),%rax
  8004203332:	48 03 45 e8          	add    -0x18(%rbp),%rax
  8004203336:	48 89 45 f0          	mov    %rax,-0x10(%rbp)

	ret = 0;
  800420333a:	48 c7 45 f8 00 00 00 	movq   $0x0,-0x8(%rbp)
  8004203341:	00 
	switch (bytes_to_read) {
  8004203342:	8b 45 dc             	mov    -0x24(%rbp),%eax
  8004203345:	83 f8 02             	cmp    $0x2,%eax
  8004203348:	0f 84 ab 00 00 00    	je     80042033f9 <_dwarf_read_lsb+0xe1>
  800420334e:	83 f8 02             	cmp    $0x2,%eax
  8004203351:	7f 0e                	jg     8004203361 <_dwarf_read_lsb+0x49>
  8004203353:	83 f8 01             	cmp    $0x1,%eax
  8004203356:	0f 84 b3 00 00 00    	je     800420340f <_dwarf_read_lsb+0xf7>
  800420335c:	e9 d9 00 00 00       	jmpq   800420343a <_dwarf_read_lsb+0x122>
  8004203361:	83 f8 04             	cmp    $0x4,%eax
  8004203364:	74 65                	je     80042033cb <_dwarf_read_lsb+0xb3>
  8004203366:	83 f8 08             	cmp    $0x8,%eax
  8004203369:	0f 85 cb 00 00 00    	jne    800420343a <_dwarf_read_lsb+0x122>
	case 8:
		ret |= ((uint64_t) src[4]) << 32 | ((uint64_t) src[5]) << 40;
  800420336f:	48 8b 45 f0          	mov    -0x10(%rbp),%rax
  8004203373:	48 83 c0 04          	add    $0x4,%rax
  8004203377:	0f b6 00             	movzbl (%rax),%eax
  800420337a:	0f b6 c0             	movzbl %al,%eax
  800420337d:	48 89 c2             	mov    %rax,%rdx
  8004203380:	48 c1 e2 20          	shl    $0x20,%rdx
  8004203384:	48 8b 45 f0          	mov    -0x10(%rbp),%rax
  8004203388:	48 83 c0 05          	add    $0x5,%rax
  800420338c:	0f b6 00             	movzbl (%rax),%eax
  800420338f:	0f b6 c0             	movzbl %al,%eax
  8004203392:	48 c1 e0 28          	shl    $0x28,%rax
  8004203396:	48 09 d0             	or     %rdx,%rax
  8004203399:	48 09 45 f8          	or     %rax,-0x8(%rbp)
		ret |= ((uint64_t) src[6]) << 48 | ((uint64_t) src[7]) << 56;
  800420339d:	48 8b 45 f0          	mov    -0x10(%rbp),%rax
  80042033a1:	48 83 c0 06          	add    $0x6,%rax
  80042033a5:	0f b6 00             	movzbl (%rax),%eax
  80042033a8:	0f b6 c0             	movzbl %al,%eax
  80042033ab:	48 89 c2             	mov    %rax,%rdx
  80042033ae:	48 c1 e2 30          	shl    $0x30,%rdx
  80042033b2:	48 8b 45 f0          	mov    -0x10(%rbp),%rax
  80042033b6:	48 83 c0 07          	add    $0x7,%rax
  80042033ba:	0f b6 00             	movzbl (%rax),%eax
  80042033bd:	0f b6 c0             	movzbl %al,%eax
  80042033c0:	48 c1 e0 38          	shl    $0x38,%rax
  80042033c4:	48 09 d0             	or     %rdx,%rax
  80042033c7:	48 09 45 f8          	or     %rax,-0x8(%rbp)
	case 4:
		ret |= ((uint64_t) src[2]) << 16 | ((uint64_t) src[3]) << 24;
  80042033cb:	48 8b 45 f0          	mov    -0x10(%rbp),%rax
  80042033cf:	48 83 c0 02          	add    $0x2,%rax
  80042033d3:	0f b6 00             	movzbl (%rax),%eax
  80042033d6:	0f b6 c0             	movzbl %al,%eax
  80042033d9:	48 89 c2             	mov    %rax,%rdx
  80042033dc:	48 c1 e2 10          	shl    $0x10,%rdx
  80042033e0:	48 8b 45 f0          	mov    -0x10(%rbp),%rax
  80042033e4:	48 83 c0 03          	add    $0x3,%rax
  80042033e8:	0f b6 00             	movzbl (%rax),%eax
  80042033eb:	0f b6 c0             	movzbl %al,%eax
  80042033ee:	48 c1 e0 18          	shl    $0x18,%rax
  80042033f2:	48 09 d0             	or     %rdx,%rax
  80042033f5:	48 09 45 f8          	or     %rax,-0x8(%rbp)
	case 2:
		ret |= ((uint64_t) src[1]) << 8;
  80042033f9:	48 8b 45 f0          	mov    -0x10(%rbp),%rax
  80042033fd:	48 83 c0 01          	add    $0x1,%rax
  8004203401:	0f b6 00             	movzbl (%rax),%eax
  8004203404:	0f b6 c0             	movzbl %al,%eax
  8004203407:	48 c1 e0 08          	shl    $0x8,%rax
  800420340b:	48 09 45 f8          	or     %rax,-0x8(%rbp)
	case 1:
		ret |= src[0];
  800420340f:	48 8b 45 f0          	mov    -0x10(%rbp),%rax
  8004203413:	0f b6 00             	movzbl (%rax),%eax
  8004203416:	0f b6 c0             	movzbl %al,%eax
  8004203419:	48 09 45 f8          	or     %rax,-0x8(%rbp)
		break;
  800420341d:	90                   	nop
	default:
		return (0);
	}

	*offsetp += bytes_to_read;
  800420341e:	48 8b 45 e0          	mov    -0x20(%rbp),%rax
  8004203422:	48 8b 10             	mov    (%rax),%rdx
  8004203425:	8b 45 dc             	mov    -0x24(%rbp),%eax
  8004203428:	48 98                	cltq   
  800420342a:	48 01 c2             	add    %rax,%rdx
  800420342d:	48 8b 45 e0          	mov    -0x20(%rbp),%rax
  8004203431:	48 89 10             	mov    %rdx,(%rax)

	return (ret);
  8004203434:	48 8b 45 f8          	mov    -0x8(%rbp),%rax
  8004203438:	eb 05                	jmp    800420343f <_dwarf_read_lsb+0x127>
		ret |= ((uint64_t) src[1]) << 8;
	case 1:
		ret |= src[0];
		break;
	default:
		return (0);
  800420343a:	b8 00 00 00 00       	mov    $0x0,%eax
	}

	*offsetp += bytes_to_read;

	return (ret);
}
  800420343f:	c9                   	leaveq 
  8004203440:	c3                   	retq   

0000008004203441 <_dwarf_decode_lsb>:

uint64_t
_dwarf_decode_lsb(uint8_t **data, int bytes_to_read)
{
  8004203441:	55                   	push   %rbp
  8004203442:	48 89 e5             	mov    %rsp,%rbp
  8004203445:	48 83 ec 20          	sub    $0x20,%rsp
  8004203449:	48 89 7d e8          	mov    %rdi,-0x18(%rbp)
  800420344d:	89 75 e4             	mov    %esi,-0x1c(%rbp)
	uint64_t ret;
	uint8_t *src;

	src = *data;
